
main.o:     file format elf64-x86-64


Disassembly of section .text:

0000000000000000 <loadStateArray>:
       0:	f3 0f 1e fa          	endbr64 
       4:	55                   	push   %rbp
       5:	48 89 e5             	mov    %rsp,%rbp
       8:	48 89 7d e8          	mov    %rdi,-0x18(%rbp)
       c:	48 89 75 e0          	mov    %rsi,-0x20(%rbp)
      10:	c7 45 fc 00 00 00 00 	movl   $0x0,-0x4(%rbp)
      17:	eb 43                	jmp    5c <loadStateArray+0x5c>
      19:	c7 45 f8 00 00 00 00 	movl   $0x0,-0x8(%rbp)
      20:	eb 30                	jmp    52 <loadStateArray+0x52>
      22:	48 8b 45 e0          	mov    -0x20(%rbp),%rax
      26:	48 8d 50 01          	lea    0x1(%rax),%rdx
      2a:	48 89 55 e0          	mov    %rdx,-0x20(%rbp)
      2e:	8b 55 f8             	mov    -0x8(%rbp),%edx
      31:	48 63 d2             	movslq %edx,%rdx
      34:	48 8d 0c 95 00 00 00 	lea    0x0(,%rdx,4),%rcx
      3b:	00 
      3c:	48 8b 55 e8          	mov    -0x18(%rbp),%rdx
      40:	48 01 d1             	add    %rdx,%rcx
      43:	0f b6 10             	movzbl (%rax),%edx
      46:	8b 45 fc             	mov    -0x4(%rbp),%eax
      49:	48 98                	cltq   
      4b:	88 14 01             	mov    %dl,(%rcx,%rax,1)
      4e:	83 45 f8 01          	addl   $0x1,-0x8(%rbp)
      52:	83 7d f8 03          	cmpl   $0x3,-0x8(%rbp)
      56:	7e ca                	jle    22 <loadStateArray+0x22>
      58:	83 45 fc 01          	addl   $0x1,-0x4(%rbp)
      5c:	83 7d fc 03          	cmpl   $0x3,-0x4(%rbp)
      60:	7e b7                	jle    19 <loadStateArray+0x19>
      62:	b8 00 00 00 00       	mov    $0x0,%eax
      67:	5d                   	pop    %rbp
      68:	c3                   	ret    

0000000000000069 <storeStateArray>:
      69:	f3 0f 1e fa          	endbr64 
      6d:	55                   	push   %rbp
      6e:	48 89 e5             	mov    %rsp,%rbp
      71:	48 89 7d e8          	mov    %rdi,-0x18(%rbp)
      75:	48 89 75 e0          	mov    %rsi,-0x20(%rbp)
      79:	c7 45 fc 00 00 00 00 	movl   $0x0,-0x4(%rbp)
      80:	eb 44                	jmp    c6 <storeStateArray+0x5d>
      82:	c7 45 f8 00 00 00 00 	movl   $0x0,-0x8(%rbp)
      89:	eb 31                	jmp    bc <storeStateArray+0x53>
      8b:	8b 45 f8             	mov    -0x8(%rbp),%eax
      8e:	48 98                	cltq   
      90:	48 8d 14 85 00 00 00 	lea    0x0(,%rax,4),%rdx
      97:	00 
      98:	48 8b 45 e8          	mov    -0x18(%rbp),%rax
      9c:	48 8d 0c 02          	lea    (%rdx,%rax,1),%rcx
      a0:	48 8b 45 e0          	mov    -0x20(%rbp),%rax
      a4:	48 8d 50 01          	lea    0x1(%rax),%rdx
      a8:	48 89 55 e0          	mov    %rdx,-0x20(%rbp)
      ac:	8b 55 fc             	mov    -0x4(%rbp),%edx
      af:	48 63 d2             	movslq %edx,%rdx
      b2:	0f b6 14 11          	movzbl (%rcx,%rdx,1),%edx
      b6:	88 10                	mov    %dl,(%rax)
      b8:	83 45 f8 01          	addl   $0x1,-0x8(%rbp)
      bc:	83 7d f8 03          	cmpl   $0x3,-0x8(%rbp)
      c0:	7e c9                	jle    8b <storeStateArray+0x22>
      c2:	83 45 fc 01          	addl   $0x1,-0x4(%rbp)
      c6:	83 7d fc 03          	cmpl   $0x3,-0x4(%rbp)
      ca:	7e b6                	jle    82 <storeStateArray+0x19>
      cc:	b8 00 00 00 00       	mov    $0x0,%eax
      d1:	5d                   	pop    %rbp
      d2:	c3                   	ret    

00000000000000d3 <keyExpansion>:
      d3:	f3 0f 1e fa          	endbr64 
      d7:	55                   	push   %rbp
      d8:	48 89 e5             	mov    %rsp,%rbp
      db:	48 83 ec 40          	sub    $0x40,%rsp
      df:	48 89 7d d8          	mov    %rdi,-0x28(%rbp)
      e3:	89 75 d4             	mov    %esi,-0x2c(%rbp)
      e6:	48 89 55 c8          	mov    %rdx,-0x38(%rbp)
      ea:	48 83 7d d8 00       	cmpq   $0x0,-0x28(%rbp)
      ef:	74 07                	je     f8 <keyExpansion+0x25>
      f1:	48 83 7d c8 00       	cmpq   $0x0,-0x38(%rbp)
      f6:	75 1e                	jne    116 <keyExpansion+0x43>
      f8:	48 8d 05 00 00 00 00 	lea    0x0(%rip),%rax        # ff <keyExpansion+0x2c>
      ff:	48 89 c7             	mov    %rax,%rdi
     102:	b8 00 00 00 00       	mov    $0x0,%eax
     107:	e8 00 00 00 00       	call   10c <keyExpansion+0x39>
     10c:	b8 ff ff ff ff       	mov    $0xffffffff,%eax
     111:	e9 94 02 00 00       	jmp    3aa <keyExpansion+0x2d7>
     116:	83 7d d4 10          	cmpl   $0x10,-0x2c(%rbp)
     11a:	74 23                	je     13f <keyExpansion+0x6c>
     11c:	8b 45 d4             	mov    -0x2c(%rbp),%eax
     11f:	89 c6                	mov    %eax,%esi
     121:	48 8d 05 00 00 00 00 	lea    0x0(%rip),%rax        # 128 <keyExpansion+0x55>
     128:	48 89 c7             	mov    %rax,%rdi
     12b:	b8 00 00 00 00       	mov    $0x0,%eax
     130:	e8 00 00 00 00       	call   135 <keyExpansion+0x62>
     135:	b8 ff ff ff ff       	mov    $0xffffffff,%eax
     13a:	e9 6b 02 00 00       	jmp    3aa <keyExpansion+0x2d7>
     13f:	48 8b 45 c8          	mov    -0x38(%rbp),%rax
     143:	48 89 45 f8          	mov    %rax,-0x8(%rbp)
     147:	48 8b 45 c8          	mov    -0x38(%rbp),%rax
     14b:	48 05 b0 00 00 00    	add    $0xb0,%rax
     151:	48 89 45 f0          	mov    %rax,-0x10(%rbp)
     155:	c7 45 ec 00 00 00 00 	movl   $0x0,-0x14(%rbp)
     15c:	e9 8e 00 00 00       	jmp    1ef <keyExpansion+0x11c>
     161:	8b 45 ec             	mov    -0x14(%rbp),%eax
     164:	c1 e0 02             	shl    $0x2,%eax
     167:	48 63 d0             	movslq %eax,%rdx
     16a:	48 8b 45 d8          	mov    -0x28(%rbp),%rax
     16e:	48 01 d0             	add    %rdx,%rax
     171:	0f b6 00             	movzbl (%rax),%eax
     174:	0f b6 c0             	movzbl %al,%eax
     177:	c1 e0 18             	shl    $0x18,%eax
     17a:	89 c2                	mov    %eax,%edx
     17c:	8b 45 ec             	mov    -0x14(%rbp),%eax
     17f:	c1 e0 02             	shl    $0x2,%eax
     182:	48 98                	cltq   
     184:	48 8d 48 01          	lea    0x1(%rax),%rcx
     188:	48 8b 45 d8          	mov    -0x28(%rbp),%rax
     18c:	48 01 c8             	add    %rcx,%rax
     18f:	0f b6 00             	movzbl (%rax),%eax
     192:	0f b6 c0             	movzbl %al,%eax
     195:	c1 e0 10             	shl    $0x10,%eax
     198:	09 c2                	or     %eax,%edx
     19a:	8b 45 ec             	mov    -0x14(%rbp),%eax
     19d:	c1 e0 02             	shl    $0x2,%eax
     1a0:	48 98                	cltq   
     1a2:	48 8d 48 02          	lea    0x2(%rax),%rcx
     1a6:	48 8b 45 d8          	mov    -0x28(%rbp),%rax
     1aa:	48 01 c8             	add    %rcx,%rax
     1ad:	0f b6 00             	movzbl (%rax),%eax
     1b0:	0f b6 c0             	movzbl %al,%eax
     1b3:	c1 e0 08             	shl    $0x8,%eax
     1b6:	89 d1                	mov    %edx,%ecx
     1b8:	09 c1                	or     %eax,%ecx
     1ba:	8b 45 ec             	mov    -0x14(%rbp),%eax
     1bd:	c1 e0 02             	shl    $0x2,%eax
     1c0:	48 98                	cltq   
     1c2:	48 8d 50 03          	lea    0x3(%rax),%rdx
     1c6:	48 8b 45 d8          	mov    -0x28(%rbp),%rax
     1ca:	48 01 d0             	add    %rdx,%rax
     1cd:	0f b6 00             	movzbl (%rax),%eax
     1d0:	0f b6 d0             	movzbl %al,%edx
     1d3:	8b 45 ec             	mov    -0x14(%rbp),%eax
     1d6:	48 98                	cltq   
     1d8:	48 8d 34 85 00 00 00 	lea    0x0(,%rax,4),%rsi
     1df:	00 
     1e0:	48 8b 45 f8          	mov    -0x8(%rbp),%rax
     1e4:	48 01 f0             	add    %rsi,%rax
     1e7:	09 ca                	or     %ecx,%edx
     1e9:	89 10                	mov    %edx,(%rax)
     1eb:	83 45 ec 01          	addl   $0x1,-0x14(%rbp)
     1ef:	83 7d ec 03          	cmpl   $0x3,-0x14(%rbp)
     1f3:	0f 8e 68 ff ff ff    	jle    161 <keyExpansion+0x8e>
     1f9:	c7 45 e8 00 00 00 00 	movl   $0x0,-0x18(%rbp)
     200:	e9 2b 01 00 00       	jmp    330 <keyExpansion+0x25d>
     205:	48 8b 45 f8          	mov    -0x8(%rbp),%rax
     209:	8b 10                	mov    (%rax),%edx
     20b:	48 8b 45 f8          	mov    -0x8(%rbp),%rax
     20f:	48 83 c0 0c          	add    $0xc,%rax
     213:	8b 00                	mov    (%rax),%eax
     215:	c1 e8 10             	shr    $0x10,%eax
     218:	0f b6 c8             	movzbl %al,%ecx
     21b:	48 8b 05 00 00 00 00 	mov    0x0(%rip),%rax        # 222 <keyExpansion+0x14f>
     222:	89 c9                	mov    %ecx,%ecx
     224:	0f b6 04 08          	movzbl (%rax,%rcx,1),%eax
     228:	0f b6 c0             	movzbl %al,%eax
     22b:	c1 e0 18             	shl    $0x18,%eax
     22e:	89 c6                	mov    %eax,%esi
     230:	48 8b 45 f8          	mov    -0x8(%rbp),%rax
     234:	48 83 c0 0c          	add    $0xc,%rax
     238:	8b 00                	mov    (%rax),%eax
     23a:	c1 e8 08             	shr    $0x8,%eax
     23d:	0f b6 c8             	movzbl %al,%ecx
     240:	48 8b 05 00 00 00 00 	mov    0x0(%rip),%rax        # 247 <keyExpansion+0x174>
     247:	89 c9                	mov    %ecx,%ecx
     249:	0f b6 04 08          	movzbl (%rax,%rcx,1),%eax
     24d:	0f b6 c0             	movzbl %al,%eax
     250:	c1 e0 10             	shl    $0x10,%eax
     253:	25 00 00 ff 00       	and    $0xff0000,%eax
     258:	31 c6                	xor    %eax,%esi
     25a:	48 8b 45 f8          	mov    -0x8(%rbp),%rax
     25e:	48 83 c0 0c          	add    $0xc,%rax
     262:	8b 00                	mov    (%rax),%eax
     264:	0f b6 c8             	movzbl %al,%ecx
     267:	48 8b 05 00 00 00 00 	mov    0x0(%rip),%rax        # 26e <keyExpansion+0x19b>
     26e:	89 c9                	mov    %ecx,%ecx
     270:	0f b6 04 08          	movzbl (%rax,%rcx,1),%eax
     274:	0f b6 c0             	movzbl %al,%eax
     277:	c1 e0 08             	shl    $0x8,%eax
     27a:	0f b7 c0             	movzwl %ax,%eax
     27d:	31 c6                	xor    %eax,%esi
     27f:	48 8b 45 f8          	mov    -0x8(%rbp),%rax
     283:	48 83 c0 0c          	add    $0xc,%rax
     287:	8b 00                	mov    (%rax),%eax
     289:	c1 e8 18             	shr    $0x18,%eax
     28c:	89 c1                	mov    %eax,%ecx
     28e:	48 8b 05 00 00 00 00 	mov    0x0(%rip),%rax        # 295 <keyExpansion+0x1c2>
     295:	89 c9                	mov    %ecx,%ecx
     297:	0f b6 04 08          	movzbl (%rax,%rcx,1),%eax
     29b:	0f b6 c0             	movzbl %al,%eax
     29e:	31 f0                	xor    %esi,%eax
     2a0:	89 d1                	mov    %edx,%ecx
     2a2:	31 c1                	xor    %eax,%ecx
     2a4:	8b 45 e8             	mov    -0x18(%rbp),%eax
     2a7:	48 98                	cltq   
     2a9:	48 8d 14 85 00 00 00 	lea    0x0(,%rax,4),%rdx
     2b0:	00 
     2b1:	48 8d 05 00 00 00 00 	lea    0x0(%rip),%rax        # 2b8 <keyExpansion+0x1e5>
     2b8:	8b 14 02             	mov    (%rdx,%rax,1),%edx
     2bb:	48 8b 45 f8          	mov    -0x8(%rbp),%rax
     2bf:	48 83 c0 10          	add    $0x10,%rax
     2c3:	31 ca                	xor    %ecx,%edx
     2c5:	89 10                	mov    %edx,(%rax)
     2c7:	48 8b 45 f8          	mov    -0x8(%rbp),%rax
     2cb:	48 83 c0 04          	add    $0x4,%rax
     2cf:	8b 08                	mov    (%rax),%ecx
     2d1:	48 8b 45 f8          	mov    -0x8(%rbp),%rax
     2d5:	48 83 c0 10          	add    $0x10,%rax
     2d9:	8b 10                	mov    (%rax),%edx
     2db:	48 8b 45 f8          	mov    -0x8(%rbp),%rax
     2df:	48 83 c0 14          	add    $0x14,%rax
     2e3:	31 ca                	xor    %ecx,%edx
     2e5:	89 10                	mov    %edx,(%rax)
     2e7:	48 8b 45 f8          	mov    -0x8(%rbp),%rax
     2eb:	48 83 c0 08          	add    $0x8,%rax
     2ef:	8b 08                	mov    (%rax),%ecx
     2f1:	48 8b 45 f8          	mov    -0x8(%rbp),%rax
     2f5:	48 83 c0 14          	add    $0x14,%rax
     2f9:	8b 10                	mov    (%rax),%edx
     2fb:	48 8b 45 f8          	mov    -0x8(%rbp),%rax
     2ff:	48 83 c0 18          	add    $0x18,%rax
     303:	31 ca                	xor    %ecx,%edx
     305:	89 10                	mov    %edx,(%rax)
     307:	48 8b 45 f8          	mov    -0x8(%rbp),%rax
     30b:	48 83 c0 0c          	add    $0xc,%rax
     30f:	8b 08                	mov    (%rax),%ecx
     311:	48 8b 45 f8          	mov    -0x8(%rbp),%rax
     315:	48 83 c0 18          	add    $0x18,%rax
     319:	8b 10                	mov    (%rax),%edx
     31b:	48 8b 45 f8          	mov    -0x8(%rbp),%rax
     31f:	48 83 c0 1c          	add    $0x1c,%rax
     323:	31 ca                	xor    %ecx,%edx
     325:	89 10                	mov    %edx,(%rax)
     327:	48 83 45 f8 10       	addq   $0x10,-0x8(%rbp)
     32c:	83 45 e8 01          	addl   $0x1,-0x18(%rbp)
     330:	83 7d e8 09          	cmpl   $0x9,-0x18(%rbp)
     334:	0f 8e cb fe ff ff    	jle    205 <keyExpansion+0x132>
     33a:	48 8b 45 c8          	mov    -0x38(%rbp),%rax
     33e:	48 05 a0 00 00 00    	add    $0xa0,%rax
     344:	48 89 45 f8          	mov    %rax,-0x8(%rbp)
     348:	c7 45 e4 00 00 00 00 	movl   $0x0,-0x1c(%rbp)
     34f:	eb 4e                	jmp    39f <keyExpansion+0x2cc>
     351:	c7 45 e0 00 00 00 00 	movl   $0x0,-0x20(%rbp)
     358:	eb 31                	jmp    38b <keyExpansion+0x2b8>
     35a:	8b 45 e0             	mov    -0x20(%rbp),%eax
     35d:	48 98                	cltq   
     35f:	48 8d 14 85 00 00 00 	lea    0x0(,%rax,4),%rdx
     366:	00 
     367:	48 8b 45 f8          	mov    -0x8(%rbp),%rax
     36b:	48 01 d0             	add    %rdx,%rax
     36e:	8b 55 e0             	mov    -0x20(%rbp),%edx
     371:	48 63 d2             	movslq %edx,%rdx
     374:	48 8d 0c 95 00 00 00 	lea    0x0(,%rdx,4),%rcx
     37b:	00 
     37c:	48 8b 55 f0          	mov    -0x10(%rbp),%rdx
     380:	48 01 ca             	add    %rcx,%rdx
     383:	8b 00                	mov    (%rax),%eax
     385:	89 02                	mov    %eax,(%rdx)
     387:	83 45 e0 01          	addl   $0x1,-0x20(%rbp)
     38b:	83 7d e0 03          	cmpl   $0x3,-0x20(%rbp)
     38f:	7e c9                	jle    35a <keyExpansion+0x287>
     391:	48 83 6d f8 10       	subq   $0x10,-0x8(%rbp)
     396:	48 83 45 f0 10       	addq   $0x10,-0x10(%rbp)
     39b:	83 45 e4 01          	addl   $0x1,-0x1c(%rbp)
     39f:	83 7d e4 0a          	cmpl   $0xa,-0x1c(%rbp)
     3a3:	7e ac                	jle    351 <keyExpansion+0x27e>
     3a5:	b8 00 00 00 00       	mov    $0x0,%eax
     3aa:	c9                   	leave  
     3ab:	c3                   	ret    

00000000000003ac <addRoundKey>:
     3ac:	f3 0f 1e fa          	endbr64 
     3b0:	55                   	push   %rbp
     3b1:	48 89 e5             	mov    %rsp,%rbp
     3b4:	48 89 7d d8          	mov    %rdi,-0x28(%rbp)
     3b8:	48 89 75 d0          	mov    %rsi,-0x30(%rbp)
     3bc:	c7 45 fc 00 00 00 00 	movl   $0x0,-0x4(%rbp)
     3c3:	e9 b9 00 00 00       	jmp    481 <addRoundKey+0xd5>
     3c8:	c7 45 f8 00 00 00 00 	movl   $0x0,-0x8(%rbp)
     3cf:	e9 9f 00 00 00       	jmp    473 <addRoundKey+0xc7>
     3d4:	8b 45 f8             	mov    -0x8(%rbp),%eax
     3d7:	48 98                	cltq   
     3d9:	48 8d 14 85 00 00 00 	lea    0x0(,%rax,4),%rdx
     3e0:	00 
     3e1:	48 8b 45 d0          	mov    -0x30(%rbp),%rax
     3e5:	48 01 d0             	add    %rdx,%rax
     3e8:	8b 10                	mov    (%rax),%edx
     3ea:	b8 03 00 00 00       	mov    $0x3,%eax
     3ef:	2b 45 fc             	sub    -0x4(%rbp),%eax
     3f2:	c1 e0 03             	shl    $0x3,%eax
     3f5:	89 c1                	mov    %eax,%ecx
     3f7:	d3 ea                	shr    %cl,%edx
     3f9:	89 d0                	mov    %edx,%eax
     3fb:	89 c2                	mov    %eax,%edx
     3fd:	8b 45 f8             	mov    -0x8(%rbp),%eax
     400:	48 63 c8             	movslq %eax,%rcx
     403:	8b 45 fc             	mov    -0x4(%rbp),%eax
     406:	48 98                	cltq   
     408:	48 c1 e0 02          	shl    $0x2,%rax
     40c:	48 01 e8             	add    %rbp,%rax
     40f:	48 01 c8             	add    %rcx,%rax
     412:	48 83 e8 20          	sub    $0x20,%rax
     416:	88 10                	mov    %dl,(%rax)
     418:	8b 45 fc             	mov    -0x4(%rbp),%eax
     41b:	48 98                	cltq   
     41d:	48 8d 14 85 00 00 00 	lea    0x0(,%rax,4),%rdx
     424:	00 
     425:	48 8b 45 d8          	mov    -0x28(%rbp),%rax
     429:	48 01 c2             	add    %rax,%rdx
     42c:	8b 45 f8             	mov    -0x8(%rbp),%eax
     42f:	48 98                	cltq   
     431:	0f b6 34 02          	movzbl (%rdx,%rax,1),%esi
     435:	8b 45 f8             	mov    -0x8(%rbp),%eax
     438:	48 63 d0             	movslq %eax,%rdx
     43b:	8b 45 fc             	mov    -0x4(%rbp),%eax
     43e:	48 98                	cltq   
     440:	48 c1 e0 02          	shl    $0x2,%rax
     444:	48 01 e8             	add    %rbp,%rax
     447:	48 01 d0             	add    %rdx,%rax
     44a:	48 83 e8 20          	sub    $0x20,%rax
     44e:	0f b6 08             	movzbl (%rax),%ecx
     451:	8b 45 fc             	mov    -0x4(%rbp),%eax
     454:	48 98                	cltq   
     456:	48 8d 14 85 00 00 00 	lea    0x0(,%rax,4),%rdx
     45d:	00 
     45e:	48 8b 45 d8          	mov    -0x28(%rbp),%rax
     462:	48 01 c2             	add    %rax,%rdx
     465:	31 f1                	xor    %esi,%ecx
     467:	8b 45 f8             	mov    -0x8(%rbp),%eax
     46a:	48 98                	cltq   
     46c:	88 0c 02             	mov    %cl,(%rdx,%rax,1)
     46f:	83 45 f8 01          	addl   $0x1,-0x8(%rbp)
     473:	83 7d f8 03          	cmpl   $0x3,-0x8(%rbp)
     477:	0f 8e 57 ff ff ff    	jle    3d4 <addRoundKey+0x28>
     47d:	83 45 fc 01          	addl   $0x1,-0x4(%rbp)
     481:	83 7d fc 03          	cmpl   $0x3,-0x4(%rbp)
     485:	0f 8e 3d ff ff ff    	jle    3c8 <addRoundKey+0x1c>
     48b:	b8 00 00 00 00       	mov    $0x0,%eax
     490:	5d                   	pop    %rbp
     491:	c3                   	ret    

0000000000000492 <subBytes>:
     492:	f3 0f 1e fa          	endbr64 
     496:	55                   	push   %rbp
     497:	48 89 e5             	mov    %rsp,%rbp
     49a:	48 89 7d e8          	mov    %rdi,-0x18(%rbp)
     49e:	c7 45 fc 00 00 00 00 	movl   $0x0,-0x4(%rbp)
     4a5:	eb 61                	jmp    508 <subBytes+0x76>
     4a7:	c7 45 f8 00 00 00 00 	movl   $0x0,-0x8(%rbp)
     4ae:	eb 4e                	jmp    4fe <subBytes+0x6c>
     4b0:	8b 45 fc             	mov    -0x4(%rbp),%eax
     4b3:	48 98                	cltq   
     4b5:	48 8d 14 85 00 00 00 	lea    0x0(,%rax,4),%rdx
     4bc:	00 
     4bd:	48 8b 45 e8          	mov    -0x18(%rbp),%rax
     4c1:	48 01 c2             	add    %rax,%rdx
     4c4:	8b 45 f8             	mov    -0x8(%rbp),%eax
     4c7:	48 98                	cltq   
     4c9:	0f b6 04 02          	movzbl (%rdx,%rax,1),%eax
     4cd:	0f b6 c0             	movzbl %al,%eax
     4d0:	8b 55 fc             	mov    -0x4(%rbp),%edx
     4d3:	48 63 d2             	movslq %edx,%rdx
     4d6:	48 8d 0c 95 00 00 00 	lea    0x0(,%rdx,4),%rcx
     4dd:	00 
     4de:	48 8b 55 e8          	mov    -0x18(%rbp),%rdx
     4e2:	48 01 d1             	add    %rdx,%rcx
     4e5:	48 8b 15 00 00 00 00 	mov    0x0(%rip),%rdx        # 4ec <subBytes+0x5a>
     4ec:	48 98                	cltq   
     4ee:	0f b6 14 02          	movzbl (%rdx,%rax,1),%edx
     4f2:	8b 45 f8             	mov    -0x8(%rbp),%eax
     4f5:	48 98                	cltq   
     4f7:	88 14 01             	mov    %dl,(%rcx,%rax,1)
     4fa:	83 45 f8 01          	addl   $0x1,-0x8(%rbp)
     4fe:	83 7d f8 03          	cmpl   $0x3,-0x8(%rbp)
     502:	7e ac                	jle    4b0 <subBytes+0x1e>
     504:	83 45 fc 01          	addl   $0x1,-0x4(%rbp)
     508:	83 7d fc 03          	cmpl   $0x3,-0x4(%rbp)
     50c:	7e 99                	jle    4a7 <subBytes+0x15>
     50e:	b8 00 00 00 00       	mov    $0x0,%eax
     513:	5d                   	pop    %rbp
     514:	c3                   	ret    

0000000000000515 <invSubBytes>:
     515:	f3 0f 1e fa          	endbr64 
     519:	55                   	push   %rbp
     51a:	48 89 e5             	mov    %rsp,%rbp
     51d:	48 89 7d e8          	mov    %rdi,-0x18(%rbp)
     521:	c7 45 fc 00 00 00 00 	movl   $0x0,-0x4(%rbp)
     528:	eb 61                	jmp    58b <invSubBytes+0x76>
     52a:	c7 45 f8 00 00 00 00 	movl   $0x0,-0x8(%rbp)
     531:	eb 4e                	jmp    581 <invSubBytes+0x6c>
     533:	8b 45 fc             	mov    -0x4(%rbp),%eax
     536:	48 98                	cltq   
     538:	48 8d 14 85 00 00 00 	lea    0x0(,%rax,4),%rdx
     53f:	00 
     540:	48 8b 45 e8          	mov    -0x18(%rbp),%rax
     544:	48 01 c2             	add    %rax,%rdx
     547:	8b 45 f8             	mov    -0x8(%rbp),%eax
     54a:	48 98                	cltq   
     54c:	0f b6 04 02          	movzbl (%rdx,%rax,1),%eax
     550:	0f b6 c0             	movzbl %al,%eax
     553:	8b 55 fc             	mov    -0x4(%rbp),%edx
     556:	48 63 d2             	movslq %edx,%rdx
     559:	48 8d 0c 95 00 00 00 	lea    0x0(,%rdx,4),%rcx
     560:	00 
     561:	48 8b 55 e8          	mov    -0x18(%rbp),%rdx
     565:	48 01 d1             	add    %rdx,%rcx
     568:	48 8b 15 00 00 00 00 	mov    0x0(%rip),%rdx        # 56f <invSubBytes+0x5a>
     56f:	48 98                	cltq   
     571:	0f b6 14 02          	movzbl (%rdx,%rax,1),%edx
     575:	8b 45 f8             	mov    -0x8(%rbp),%eax
     578:	48 98                	cltq   
     57a:	88 14 01             	mov    %dl,(%rcx,%rax,1)
     57d:	83 45 f8 01          	addl   $0x1,-0x8(%rbp)
     581:	83 7d f8 03          	cmpl   $0x3,-0x8(%rbp)
     585:	7e ac                	jle    533 <invSubBytes+0x1e>
     587:	83 45 fc 01          	addl   $0x1,-0x4(%rbp)
     58b:	83 7d fc 03          	cmpl   $0x3,-0x4(%rbp)
     58f:	7e 99                	jle    52a <invSubBytes+0x15>
     591:	b8 00 00 00 00       	mov    $0x0,%eax
     596:	5d                   	pop    %rbp
     597:	c3                   	ret    

0000000000000598 <shiftRows>:
     598:	f3 0f 1e fa          	endbr64 
     59c:	55                   	push   %rbp
     59d:	48 89 e5             	mov    %rsp,%rbp
     5a0:	48 89 7d d8          	mov    %rdi,-0x28(%rbp)
     5a4:	48 c7 45 e0 00 00 00 	movq   $0x0,-0x20(%rbp)
     5ab:	00 
     5ac:	48 c7 45 e8 00 00 00 	movq   $0x0,-0x18(%rbp)
     5b3:	00 
     5b4:	c7 45 fc 00 00 00 00 	movl   $0x0,-0x4(%rbp)
     5bb:	e9 53 01 00 00       	jmp    713 <shiftRows+0x17b>
     5c0:	8b 45 fc             	mov    -0x4(%rbp),%eax
     5c3:	48 98                	cltq   
     5c5:	48 8d 14 85 00 00 00 	lea    0x0(,%rax,4),%rdx
     5cc:	00 
     5cd:	48 8b 45 d8          	mov    -0x28(%rbp),%rax
     5d1:	48 01 d0             	add    %rdx,%rax
     5d4:	0f b6 00             	movzbl (%rax),%eax
     5d7:	0f b6 c0             	movzbl %al,%eax
     5da:	c1 e0 18             	shl    $0x18,%eax
     5dd:	89 c2                	mov    %eax,%edx
     5df:	8b 45 fc             	mov    -0x4(%rbp),%eax
     5e2:	48 98                	cltq   
     5e4:	48 8d 0c 85 00 00 00 	lea    0x0(,%rax,4),%rcx
     5eb:	00 
     5ec:	48 8b 45 d8          	mov    -0x28(%rbp),%rax
     5f0:	48 01 c8             	add    %rcx,%rax
     5f3:	0f b6 40 01          	movzbl 0x1(%rax),%eax
     5f7:	0f b6 c0             	movzbl %al,%eax
     5fa:	c1 e0 10             	shl    $0x10,%eax
     5fd:	09 c2                	or     %eax,%edx
     5ff:	8b 45 fc             	mov    -0x4(%rbp),%eax
     602:	48 98                	cltq   
     604:	48 8d 0c 85 00 00 00 	lea    0x0(,%rax,4),%rcx
     60b:	00 
     60c:	48 8b 45 d8          	mov    -0x28(%rbp),%rax
     610:	48 01 c8             	add    %rcx,%rax
     613:	0f b6 40 02          	movzbl 0x2(%rax),%eax
     617:	0f b6 c0             	movzbl %al,%eax
     61a:	c1 e0 08             	shl    $0x8,%eax
     61d:	09 c2                	or     %eax,%edx
     61f:	8b 45 fc             	mov    -0x4(%rbp),%eax
     622:	48 98                	cltq   
     624:	48 8d 0c 85 00 00 00 	lea    0x0(,%rax,4),%rcx
     62b:	00 
     62c:	48 8b 45 d8          	mov    -0x28(%rbp),%rax
     630:	48 01 c8             	add    %rcx,%rax
     633:	0f b6 40 03          	movzbl 0x3(%rax),%eax
     637:	0f b6 c0             	movzbl %al,%eax
     63a:	09 c2                	or     %eax,%edx
     63c:	8b 45 fc             	mov    -0x4(%rbp),%eax
     63f:	48 98                	cltq   
     641:	89 54 85 e0          	mov    %edx,-0x20(%rbp,%rax,4)
     645:	8b 45 fc             	mov    -0x4(%rbp),%eax
     648:	48 98                	cltq   
     64a:	8b 54 85 e0          	mov    -0x20(%rbp,%rax,4),%edx
     64e:	8b 45 fc             	mov    -0x4(%rbp),%eax
     651:	c1 e0 03             	shl    $0x3,%eax
     654:	89 d6                	mov    %edx,%esi
     656:	89 c1                	mov    %eax,%ecx
     658:	d3 e6                	shl    %cl,%esi
     65a:	8b 45 fc             	mov    -0x4(%rbp),%eax
     65d:	48 98                	cltq   
     65f:	8b 54 85 e0          	mov    -0x20(%rbp,%rax,4),%edx
     663:	b8 04 00 00 00       	mov    $0x4,%eax
     668:	2b 45 fc             	sub    -0x4(%rbp),%eax
     66b:	c1 e0 03             	shl    $0x3,%eax
     66e:	89 c1                	mov    %eax,%ecx
     670:	d3 ea                	shr    %cl,%edx
     672:	89 d0                	mov    %edx,%eax
     674:	09 c6                	or     %eax,%esi
     676:	89 f2                	mov    %esi,%edx
     678:	8b 45 fc             	mov    -0x4(%rbp),%eax
     67b:	48 98                	cltq   
     67d:	89 54 85 e0          	mov    %edx,-0x20(%rbp,%rax,4)
     681:	8b 45 fc             	mov    -0x4(%rbp),%eax
     684:	48 98                	cltq   
     686:	8b 44 85 e0          	mov    -0x20(%rbp,%rax,4),%eax
     68a:	c1 e8 18             	shr    $0x18,%eax
     68d:	89 c2                	mov    %eax,%edx
     68f:	8b 45 fc             	mov    -0x4(%rbp),%eax
     692:	48 98                	cltq   
     694:	48 8d 0c 85 00 00 00 	lea    0x0(,%rax,4),%rcx
     69b:	00 
     69c:	48 8b 45 d8          	mov    -0x28(%rbp),%rax
     6a0:	48 01 c8             	add    %rcx,%rax
     6a3:	88 10                	mov    %dl,(%rax)
     6a5:	8b 45 fc             	mov    -0x4(%rbp),%eax
     6a8:	48 98                	cltq   
     6aa:	8b 44 85 e0          	mov    -0x20(%rbp,%rax,4),%eax
     6ae:	c1 e8 10             	shr    $0x10,%eax
     6b1:	89 c2                	mov    %eax,%edx
     6b3:	8b 45 fc             	mov    -0x4(%rbp),%eax
     6b6:	48 98                	cltq   
     6b8:	48 8d 0c 85 00 00 00 	lea    0x0(,%rax,4),%rcx
     6bf:	00 
     6c0:	48 8b 45 d8          	mov    -0x28(%rbp),%rax
     6c4:	48 01 c8             	add    %rcx,%rax
     6c7:	88 50 01             	mov    %dl,0x1(%rax)
     6ca:	8b 45 fc             	mov    -0x4(%rbp),%eax
     6cd:	48 98                	cltq   
     6cf:	8b 44 85 e0          	mov    -0x20(%rbp,%rax,4),%eax
     6d3:	c1 e8 08             	shr    $0x8,%eax
     6d6:	89 c2                	mov    %eax,%edx
     6d8:	8b 45 fc             	mov    -0x4(%rbp),%eax
     6db:	48 98                	cltq   
     6dd:	48 8d 0c 85 00 00 00 	lea    0x0(,%rax,4),%rcx
     6e4:	00 
     6e5:	48 8b 45 d8          	mov    -0x28(%rbp),%rax
     6e9:	48 01 c8             	add    %rcx,%rax
     6ec:	88 50 02             	mov    %dl,0x2(%rax)
     6ef:	8b 45 fc             	mov    -0x4(%rbp),%eax
     6f2:	48 98                	cltq   
     6f4:	8b 54 85 e0          	mov    -0x20(%rbp,%rax,4),%edx
     6f8:	8b 45 fc             	mov    -0x4(%rbp),%eax
     6fb:	48 98                	cltq   
     6fd:	48 8d 0c 85 00 00 00 	lea    0x0(,%rax,4),%rcx
     704:	00 
     705:	48 8b 45 d8          	mov    -0x28(%rbp),%rax
     709:	48 01 c8             	add    %rcx,%rax
     70c:	88 50 03             	mov    %dl,0x3(%rax)
     70f:	83 45 fc 01          	addl   $0x1,-0x4(%rbp)
     713:	83 7d fc 03          	cmpl   $0x3,-0x4(%rbp)
     717:	0f 8e a3 fe ff ff    	jle    5c0 <shiftRows+0x28>
     71d:	b8 00 00 00 00       	mov    $0x0,%eax
     722:	5d                   	pop    %rbp
     723:	c3                   	ret    

0000000000000724 <invShiftRows>:
     724:	f3 0f 1e fa          	endbr64 
     728:	55                   	push   %rbp
     729:	48 89 e5             	mov    %rsp,%rbp
     72c:	48 89 7d d8          	mov    %rdi,-0x28(%rbp)
     730:	48 c7 45 e0 00 00 00 	movq   $0x0,-0x20(%rbp)
     737:	00 
     738:	48 c7 45 e8 00 00 00 	movq   $0x0,-0x18(%rbp)
     73f:	00 
     740:	c7 45 fc 00 00 00 00 	movl   $0x0,-0x4(%rbp)
     747:	e9 53 01 00 00       	jmp    89f <invShiftRows+0x17b>
     74c:	8b 45 fc             	mov    -0x4(%rbp),%eax
     74f:	48 98                	cltq   
     751:	48 8d 14 85 00 00 00 	lea    0x0(,%rax,4),%rdx
     758:	00 
     759:	48 8b 45 d8          	mov    -0x28(%rbp),%rax
     75d:	48 01 d0             	add    %rdx,%rax
     760:	0f b6 00             	movzbl (%rax),%eax
     763:	0f b6 c0             	movzbl %al,%eax
     766:	c1 e0 18             	shl    $0x18,%eax
     769:	89 c2                	mov    %eax,%edx
     76b:	8b 45 fc             	mov    -0x4(%rbp),%eax
     76e:	48 98                	cltq   
     770:	48 8d 0c 85 00 00 00 	lea    0x0(,%rax,4),%rcx
     777:	00 
     778:	48 8b 45 d8          	mov    -0x28(%rbp),%rax
     77c:	48 01 c8             	add    %rcx,%rax
     77f:	0f b6 40 01          	movzbl 0x1(%rax),%eax
     783:	0f b6 c0             	movzbl %al,%eax
     786:	c1 e0 10             	shl    $0x10,%eax
     789:	09 c2                	or     %eax,%edx
     78b:	8b 45 fc             	mov    -0x4(%rbp),%eax
     78e:	48 98                	cltq   
     790:	48 8d 0c 85 00 00 00 	lea    0x0(,%rax,4),%rcx
     797:	00 
     798:	48 8b 45 d8          	mov    -0x28(%rbp),%rax
     79c:	48 01 c8             	add    %rcx,%rax
     79f:	0f b6 40 02          	movzbl 0x2(%rax),%eax
     7a3:	0f b6 c0             	movzbl %al,%eax
     7a6:	c1 e0 08             	shl    $0x8,%eax
     7a9:	09 c2                	or     %eax,%edx
     7ab:	8b 45 fc             	mov    -0x4(%rbp),%eax
     7ae:	48 98                	cltq   
     7b0:	48 8d 0c 85 00 00 00 	lea    0x0(,%rax,4),%rcx
     7b7:	00 
     7b8:	48 8b 45 d8          	mov    -0x28(%rbp),%rax
     7bc:	48 01 c8             	add    %rcx,%rax
     7bf:	0f b6 40 03          	movzbl 0x3(%rax),%eax
     7c3:	0f b6 c0             	movzbl %al,%eax
     7c6:	09 c2                	or     %eax,%edx
     7c8:	8b 45 fc             	mov    -0x4(%rbp),%eax
     7cb:	48 98                	cltq   
     7cd:	89 54 85 e0          	mov    %edx,-0x20(%rbp,%rax,4)
     7d1:	8b 45 fc             	mov    -0x4(%rbp),%eax
     7d4:	48 98                	cltq   
     7d6:	8b 54 85 e0          	mov    -0x20(%rbp,%rax,4),%edx
     7da:	8b 45 fc             	mov    -0x4(%rbp),%eax
     7dd:	c1 e0 03             	shl    $0x3,%eax
     7e0:	89 d6                	mov    %edx,%esi
     7e2:	89 c1                	mov    %eax,%ecx
     7e4:	d3 ee                	shr    %cl,%esi
     7e6:	8b 45 fc             	mov    -0x4(%rbp),%eax
     7e9:	48 98                	cltq   
     7eb:	8b 54 85 e0          	mov    -0x20(%rbp,%rax,4),%edx
     7ef:	b8 04 00 00 00       	mov    $0x4,%eax
     7f4:	2b 45 fc             	sub    -0x4(%rbp),%eax
     7f7:	c1 e0 03             	shl    $0x3,%eax
     7fa:	89 c1                	mov    %eax,%ecx
     7fc:	d3 e2                	shl    %cl,%edx
     7fe:	89 d0                	mov    %edx,%eax
     800:	09 c6                	or     %eax,%esi
     802:	89 f2                	mov    %esi,%edx
     804:	8b 45 fc             	mov    -0x4(%rbp),%eax
     807:	48 98                	cltq   
     809:	89 54 85 e0          	mov    %edx,-0x20(%rbp,%rax,4)
     80d:	8b 45 fc             	mov    -0x4(%rbp),%eax
     810:	48 98                	cltq   
     812:	8b 44 85 e0          	mov    -0x20(%rbp,%rax,4),%eax
     816:	c1 e8 18             	shr    $0x18,%eax
     819:	89 c2                	mov    %eax,%edx
     81b:	8b 45 fc             	mov    -0x4(%rbp),%eax
     81e:	48 98                	cltq   
     820:	48 8d 0c 85 00 00 00 	lea    0x0(,%rax,4),%rcx
     827:	00 
     828:	48 8b 45 d8          	mov    -0x28(%rbp),%rax
     82c:	48 01 c8             	add    %rcx,%rax
     82f:	88 10                	mov    %dl,(%rax)
     831:	8b 45 fc             	mov    -0x4(%rbp),%eax
     834:	48 98                	cltq   
     836:	8b 44 85 e0          	mov    -0x20(%rbp,%rax,4),%eax
     83a:	c1 e8 10             	shr    $0x10,%eax
     83d:	89 c2                	mov    %eax,%edx
     83f:	8b 45 fc             	mov    -0x4(%rbp),%eax
     842:	48 98                	cltq   
     844:	48 8d 0c 85 00 00 00 	lea    0x0(,%rax,4),%rcx
     84b:	00 
     84c:	48 8b 45 d8          	mov    -0x28(%rbp),%rax
     850:	48 01 c8             	add    %rcx,%rax
     853:	88 50 01             	mov    %dl,0x1(%rax)
     856:	8b 45 fc             	mov    -0x4(%rbp),%eax
     859:	48 98                	cltq   
     85b:	8b 44 85 e0          	mov    -0x20(%rbp,%rax,4),%eax
     85f:	c1 e8 08             	shr    $0x8,%eax
     862:	89 c2                	mov    %eax,%edx
     864:	8b 45 fc             	mov    -0x4(%rbp),%eax
     867:	48 98                	cltq   
     869:	48 8d 0c 85 00 00 00 	lea    0x0(,%rax,4),%rcx
     870:	00 
     871:	48 8b 45 d8          	mov    -0x28(%rbp),%rax
     875:	48 01 c8             	add    %rcx,%rax
     878:	88 50 02             	mov    %dl,0x2(%rax)
     87b:	8b 45 fc             	mov    -0x4(%rbp),%eax
     87e:	48 98                	cltq   
     880:	8b 54 85 e0          	mov    -0x20(%rbp,%rax,4),%edx
     884:	8b 45 fc             	mov    -0x4(%rbp),%eax
     887:	48 98                	cltq   
     889:	48 8d 0c 85 00 00 00 	lea    0x0(,%rax,4),%rcx
     890:	00 
     891:	48 8b 45 d8          	mov    -0x28(%rbp),%rax
     895:	48 01 c8             	add    %rcx,%rax
     898:	88 50 03             	mov    %dl,0x3(%rax)
     89b:	83 45 fc 01          	addl   $0x1,-0x4(%rbp)
     89f:	83 7d fc 03          	cmpl   $0x3,-0x4(%rbp)
     8a3:	0f 8e a3 fe ff ff    	jle    74c <invShiftRows+0x28>
     8a9:	b8 00 00 00 00       	mov    $0x0,%eax
     8ae:	5d                   	pop    %rbp
     8af:	c3                   	ret    

00000000000008b0 <GMul>:
     8b0:	f3 0f 1e fa          	endbr64 
     8b4:	55                   	push   %rbp
     8b5:	48 89 e5             	mov    %rsp,%rbp
     8b8:	89 fa                	mov    %edi,%edx
     8ba:	89 f0                	mov    %esi,%eax
     8bc:	88 55 ec             	mov    %dl,-0x14(%rbp)
     8bf:	88 45 e8             	mov    %al,-0x18(%rbp)
     8c2:	c6 45 ff 00          	movb   $0x0,-0x1(%rbp)
     8c6:	c7 45 f8 00 00 00 00 	movl   $0x0,-0x8(%rbp)
     8cd:	eb 32                	jmp    901 <GMul+0x51>
     8cf:	0f b6 45 ec          	movzbl -0x14(%rbp),%eax
     8d3:	83 e0 01             	and    $0x1,%eax
     8d6:	85 c0                	test   %eax,%eax
     8d8:	74 07                	je     8e1 <GMul+0x31>
     8da:	0f b6 45 e8          	movzbl -0x18(%rbp),%eax
     8de:	30 45 ff             	xor    %al,-0x1(%rbp)
     8e1:	0f b6 45 e8          	movzbl -0x18(%rbp),%eax
     8e5:	25 80 00 00 00       	and    $0x80,%eax
     8ea:	89 45 f4             	mov    %eax,-0xc(%rbp)
     8ed:	d0 65 e8             	shlb   -0x18(%rbp)
     8f0:	83 7d f4 00          	cmpl   $0x0,-0xc(%rbp)
     8f4:	74 04                	je     8fa <GMul+0x4a>
     8f6:	80 75 e8 1b          	xorb   $0x1b,-0x18(%rbp)
     8fa:	d0 6d ec             	shrb   -0x14(%rbp)
     8fd:	83 45 f8 01          	addl   $0x1,-0x8(%rbp)
     901:	83 7d f8 07          	cmpl   $0x7,-0x8(%rbp)
     905:	7e c8                	jle    8cf <GMul+0x1f>
     907:	0f b6 45 ff          	movzbl -0x1(%rbp),%eax
     90b:	5d                   	pop    %rbp
     90c:	c3                   	ret    

000000000000090d <mixColumns>:
     90d:	f3 0f 1e fa          	endbr64 
     911:	55                   	push   %rbp
     912:	48 89 e5             	mov    %rsp,%rbp
     915:	53                   	push   %rbx
     916:	48 83 ec 48          	sub    $0x48,%rsp
     91a:	48 89 7d b8          	mov    %rdi,-0x48(%rbp)
     91e:	c7 45 c0 02 03 01 01 	movl   $0x1010302,-0x40(%rbp)
     925:	c7 45 c4 01 02 03 01 	movl   $0x1030201,-0x3c(%rbp)
     92c:	c7 45 c8 01 01 02 03 	movl   $0x3020101,-0x38(%rbp)
     933:	c7 45 cc 03 01 01 02 	movl   $0x2010103,-0x34(%rbp)
     93a:	c7 45 ec 00 00 00 00 	movl   $0x0,-0x14(%rbp)
     941:	eb 55                	jmp    998 <mixColumns+0x8b>
     943:	c7 45 e8 00 00 00 00 	movl   $0x0,-0x18(%rbp)
     94a:	eb 42                	jmp    98e <mixColumns+0x81>
     94c:	8b 45 ec             	mov    -0x14(%rbp),%eax
     94f:	48 98                	cltq   
     951:	48 8d 14 85 00 00 00 	lea    0x0(,%rax,4),%rdx
     958:	00 
     959:	48 8b 45 b8          	mov    -0x48(%rbp),%rax
     95d:	48 01 c2             	add    %rax,%rdx
     960:	8b 45 e8             	mov    -0x18(%rbp),%eax
     963:	48 98                	cltq   
     965:	0f b6 04 02          	movzbl (%rdx,%rax,1),%eax
     969:	8b 55 e8             	mov    -0x18(%rbp),%edx
     96c:	48 63 ca             	movslq %edx,%rcx
     96f:	8b 55 ec             	mov    -0x14(%rbp),%edx
     972:	48 63 d2             	movslq %edx,%rdx
     975:	48 c1 e2 02          	shl    $0x2,%rdx
     979:	48 8d 72 f0          	lea    -0x10(%rdx),%rsi
     97d:	48 8d 14 2e          	lea    (%rsi,%rbp,1),%rdx
     981:	48 01 ca             	add    %rcx,%rdx
     984:	48 83 ea 20          	sub    $0x20,%rdx
     988:	88 02                	mov    %al,(%rdx)
     98a:	83 45 e8 01          	addl   $0x1,-0x18(%rbp)
     98e:	83 7d e8 03          	cmpl   $0x3,-0x18(%rbp)
     992:	7e b8                	jle    94c <mixColumns+0x3f>
     994:	83 45 ec 01          	addl   $0x1,-0x14(%rbp)
     998:	83 7d ec 03          	cmpl   $0x3,-0x14(%rbp)
     99c:	7e a5                	jle    943 <mixColumns+0x36>
     99e:	c7 45 e4 00 00 00 00 	movl   $0x0,-0x1c(%rbp)
     9a5:	e9 d0 00 00 00       	jmp    a7a <mixColumns+0x16d>
     9aa:	c7 45 e0 00 00 00 00 	movl   $0x0,-0x20(%rbp)
     9b1:	e9 b6 00 00 00       	jmp    a6c <mixColumns+0x15f>
     9b6:	8b 45 e0             	mov    -0x20(%rbp),%eax
     9b9:	48 98                	cltq   
     9bb:	0f b6 44 05 d0       	movzbl -0x30(%rbp,%rax,1),%eax
     9c0:	0f b6 d0             	movzbl %al,%edx
     9c3:	8b 45 e4             	mov    -0x1c(%rbp),%eax
     9c6:	48 98                	cltq   
     9c8:	0f b6 44 85 c0       	movzbl -0x40(%rbp,%rax,4),%eax
     9cd:	0f b6 c0             	movzbl %al,%eax
     9d0:	89 d6                	mov    %edx,%esi
     9d2:	89 c7                	mov    %eax,%edi
     9d4:	e8 00 00 00 00       	call   9d9 <mixColumns+0xcc>
     9d9:	89 c3                	mov    %eax,%ebx
     9db:	8b 45 e0             	mov    -0x20(%rbp),%eax
     9de:	48 98                	cltq   
     9e0:	0f b6 44 05 d4       	movzbl -0x2c(%rbp,%rax,1),%eax
     9e5:	0f b6 d0             	movzbl %al,%edx
     9e8:	8b 45 e4             	mov    -0x1c(%rbp),%eax
     9eb:	48 98                	cltq   
     9ed:	0f b6 44 85 c1       	movzbl -0x3f(%rbp,%rax,4),%eax
     9f2:	0f b6 c0             	movzbl %al,%eax
     9f5:	89 d6                	mov    %edx,%esi
     9f7:	89 c7                	mov    %eax,%edi
     9f9:	e8 00 00 00 00       	call   9fe <mixColumns+0xf1>
     9fe:	31 c3                	xor    %eax,%ebx
     a00:	8b 45 e0             	mov    -0x20(%rbp),%eax
     a03:	48 98                	cltq   
     a05:	0f b6 44 05 d8       	movzbl -0x28(%rbp,%rax,1),%eax
     a0a:	0f b6 d0             	movzbl %al,%edx
     a0d:	8b 45 e4             	mov    -0x1c(%rbp),%eax
     a10:	48 98                	cltq   
     a12:	0f b6 44 85 c2       	movzbl -0x3e(%rbp,%rax,4),%eax
     a17:	0f b6 c0             	movzbl %al,%eax
     a1a:	89 d6                	mov    %edx,%esi
     a1c:	89 c7                	mov    %eax,%edi
     a1e:	e8 00 00 00 00       	call   a23 <mixColumns+0x116>
     a23:	31 c3                	xor    %eax,%ebx
     a25:	8b 45 e0             	mov    -0x20(%rbp),%eax
     a28:	48 98                	cltq   
     a2a:	0f b6 44 05 dc       	movzbl -0x24(%rbp,%rax,1),%eax
     a2f:	0f b6 d0             	movzbl %al,%edx
     a32:	8b 45 e4             	mov    -0x1c(%rbp),%eax
     a35:	48 98                	cltq   
     a37:	0f b6 44 85 c3       	movzbl -0x3d(%rbp,%rax,4),%eax
     a3c:	0f b6 c0             	movzbl %al,%eax
     a3f:	89 d6                	mov    %edx,%esi
     a41:	89 c7                	mov    %eax,%edi
     a43:	e8 00 00 00 00       	call   a48 <mixColumns+0x13b>
     a48:	89 c1                	mov    %eax,%ecx
     a4a:	8b 45 e4             	mov    -0x1c(%rbp),%eax
     a4d:	48 98                	cltq   
     a4f:	48 8d 14 85 00 00 00 	lea    0x0(,%rax,4),%rdx
     a56:	00 
     a57:	48 8b 45 b8          	mov    -0x48(%rbp),%rax
     a5b:	48 01 c2             	add    %rax,%rdx
     a5e:	31 d9                	xor    %ebx,%ecx
     a60:	8b 45 e0             	mov    -0x20(%rbp),%eax
     a63:	48 98                	cltq   
     a65:	88 0c 02             	mov    %cl,(%rdx,%rax,1)
     a68:	83 45 e0 01          	addl   $0x1,-0x20(%rbp)
     a6c:	83 7d e0 03          	cmpl   $0x3,-0x20(%rbp)
     a70:	0f 8e 40 ff ff ff    	jle    9b6 <mixColumns+0xa9>
     a76:	83 45 e4 01          	addl   $0x1,-0x1c(%rbp)
     a7a:	83 7d e4 03          	cmpl   $0x3,-0x1c(%rbp)
     a7e:	0f 8e 26 ff ff ff    	jle    9aa <mixColumns+0x9d>
     a84:	b8 00 00 00 00       	mov    $0x0,%eax
     a89:	48 8b 5d f8          	mov    -0x8(%rbp),%rbx
     a8d:	c9                   	leave  
     a8e:	c3                   	ret    

0000000000000a8f <invMixColumns>:
     a8f:	f3 0f 1e fa          	endbr64 
     a93:	55                   	push   %rbp
     a94:	48 89 e5             	mov    %rsp,%rbp
     a97:	53                   	push   %rbx
     a98:	48 83 ec 48          	sub    $0x48,%rsp
     a9c:	48 89 7d b8          	mov    %rdi,-0x48(%rbp)
     aa0:	c7 45 c0 0e 0b 0d 09 	movl   $0x90d0b0e,-0x40(%rbp)
     aa7:	c7 45 c4 09 0e 0b 0d 	movl   $0xd0b0e09,-0x3c(%rbp)
     aae:	c7 45 c8 0d 09 0e 0b 	movl   $0xb0e090d,-0x38(%rbp)
     ab5:	c7 45 cc 0b 0d 09 0e 	movl   $0xe090d0b,-0x34(%rbp)
     abc:	c7 45 ec 00 00 00 00 	movl   $0x0,-0x14(%rbp)
     ac3:	eb 55                	jmp    b1a <invMixColumns+0x8b>
     ac5:	c7 45 e8 00 00 00 00 	movl   $0x0,-0x18(%rbp)
     acc:	eb 42                	jmp    b10 <invMixColumns+0x81>
     ace:	8b 45 ec             	mov    -0x14(%rbp),%eax
     ad1:	48 98                	cltq   
     ad3:	48 8d 14 85 00 00 00 	lea    0x0(,%rax,4),%rdx
     ada:	00 
     adb:	48 8b 45 b8          	mov    -0x48(%rbp),%rax
     adf:	48 01 c2             	add    %rax,%rdx
     ae2:	8b 45 e8             	mov    -0x18(%rbp),%eax
     ae5:	48 98                	cltq   
     ae7:	0f b6 04 02          	movzbl (%rdx,%rax,1),%eax
     aeb:	8b 55 e8             	mov    -0x18(%rbp),%edx
     aee:	48 63 ca             	movslq %edx,%rcx
     af1:	8b 55 ec             	mov    -0x14(%rbp),%edx
     af4:	48 63 d2             	movslq %edx,%rdx
     af7:	48 c1 e2 02          	shl    $0x2,%rdx
     afb:	48 8d 72 f0          	lea    -0x10(%rdx),%rsi
     aff:	48 8d 14 2e          	lea    (%rsi,%rbp,1),%rdx
     b03:	48 01 ca             	add    %rcx,%rdx
     b06:	48 83 ea 20          	sub    $0x20,%rdx
     b0a:	88 02                	mov    %al,(%rdx)
     b0c:	83 45 e8 01          	addl   $0x1,-0x18(%rbp)
     b10:	83 7d e8 03          	cmpl   $0x3,-0x18(%rbp)
     b14:	7e b8                	jle    ace <invMixColumns+0x3f>
     b16:	83 45 ec 01          	addl   $0x1,-0x14(%rbp)
     b1a:	83 7d ec 03          	cmpl   $0x3,-0x14(%rbp)
     b1e:	7e a5                	jle    ac5 <invMixColumns+0x36>
     b20:	c7 45 e4 00 00 00 00 	movl   $0x0,-0x1c(%rbp)
     b27:	e9 d0 00 00 00       	jmp    bfc <invMixColumns+0x16d>
     b2c:	c7 45 e0 00 00 00 00 	movl   $0x0,-0x20(%rbp)
     b33:	e9 b6 00 00 00       	jmp    bee <invMixColumns+0x15f>
     b38:	8b 45 e0             	mov    -0x20(%rbp),%eax
     b3b:	48 98                	cltq   
     b3d:	0f b6 44 05 d0       	movzbl -0x30(%rbp,%rax,1),%eax
     b42:	0f b6 d0             	movzbl %al,%edx
     b45:	8b 45 e4             	mov    -0x1c(%rbp),%eax
     b48:	48 98                	cltq   
     b4a:	0f b6 44 85 c0       	movzbl -0x40(%rbp,%rax,4),%eax
     b4f:	0f b6 c0             	movzbl %al,%eax
     b52:	89 d6                	mov    %edx,%esi
     b54:	89 c7                	mov    %eax,%edi
     b56:	e8 00 00 00 00       	call   b5b <invMixColumns+0xcc>
     b5b:	89 c3                	mov    %eax,%ebx
     b5d:	8b 45 e0             	mov    -0x20(%rbp),%eax
     b60:	48 98                	cltq   
     b62:	0f b6 44 05 d4       	movzbl -0x2c(%rbp,%rax,1),%eax
     b67:	0f b6 d0             	movzbl %al,%edx
     b6a:	8b 45 e4             	mov    -0x1c(%rbp),%eax
     b6d:	48 98                	cltq   
     b6f:	0f b6 44 85 c1       	movzbl -0x3f(%rbp,%rax,4),%eax
     b74:	0f b6 c0             	movzbl %al,%eax
     b77:	89 d6                	mov    %edx,%esi
     b79:	89 c7                	mov    %eax,%edi
     b7b:	e8 00 00 00 00       	call   b80 <invMixColumns+0xf1>
     b80:	31 c3                	xor    %eax,%ebx
     b82:	8b 45 e0             	mov    -0x20(%rbp),%eax
     b85:	48 98                	cltq   
     b87:	0f b6 44 05 d8       	movzbl -0x28(%rbp,%rax,1),%eax
     b8c:	0f b6 d0             	movzbl %al,%edx
     b8f:	8b 45 e4             	mov    -0x1c(%rbp),%eax
     b92:	48 98                	cltq   
     b94:	0f b6 44 85 c2       	movzbl -0x3e(%rbp,%rax,4),%eax
     b99:	0f b6 c0             	movzbl %al,%eax
     b9c:	89 d6                	mov    %edx,%esi
     b9e:	89 c7                	mov    %eax,%edi
     ba0:	e8 00 00 00 00       	call   ba5 <invMixColumns+0x116>
     ba5:	31 c3                	xor    %eax,%ebx
     ba7:	8b 45 e0             	mov    -0x20(%rbp),%eax
     baa:	48 98                	cltq   
     bac:	0f b6 44 05 dc       	movzbl -0x24(%rbp,%rax,1),%eax
     bb1:	0f b6 d0             	movzbl %al,%edx
     bb4:	8b 45 e4             	mov    -0x1c(%rbp),%eax
     bb7:	48 98                	cltq   
     bb9:	0f b6 44 85 c3       	movzbl -0x3d(%rbp,%rax,4),%eax
     bbe:	0f b6 c0             	movzbl %al,%eax
     bc1:	89 d6                	mov    %edx,%esi
     bc3:	89 c7                	mov    %eax,%edi
     bc5:	e8 00 00 00 00       	call   bca <invMixColumns+0x13b>
     bca:	89 c1                	mov    %eax,%ecx
     bcc:	8b 45 e4             	mov    -0x1c(%rbp),%eax
     bcf:	48 98                	cltq   
     bd1:	48 8d 14 85 00 00 00 	lea    0x0(,%rax,4),%rdx
     bd8:	00 
     bd9:	48 8b 45 b8          	mov    -0x48(%rbp),%rax
     bdd:	48 01 c2             	add    %rax,%rdx
     be0:	31 d9                	xor    %ebx,%ecx
     be2:	8b 45 e0             	mov    -0x20(%rbp),%eax
     be5:	48 98                	cltq   
     be7:	88 0c 02             	mov    %cl,(%rdx,%rax,1)
     bea:	83 45 e0 01          	addl   $0x1,-0x20(%rbp)
     bee:	83 7d e0 03          	cmpl   $0x3,-0x20(%rbp)
     bf2:	0f 8e 40 ff ff ff    	jle    b38 <invMixColumns+0xa9>
     bf8:	83 45 e4 01          	addl   $0x1,-0x1c(%rbp)
     bfc:	83 7d e4 03          	cmpl   $0x3,-0x1c(%rbp)
     c00:	0f 8e 26 ff ff ff    	jle    b2c <invMixColumns+0x9d>
     c06:	b8 00 00 00 00       	mov    $0x0,%eax
     c0b:	48 8b 5d f8          	mov    -0x8(%rbp),%rbx
     c0f:	c9                   	leave  
     c10:	c3                   	ret    

0000000000000c11 <aesEncrypt>:
     c11:	f3 0f 1e fa          	endbr64 
     c15:	55                   	push   %rbp
     c16:	48 89 e5             	mov    %rsp,%rbp
     c19:	48 81 ec d0 01 00 00 	sub    $0x1d0,%rsp
     c20:	48 89 bd 48 fe ff ff 	mov    %rdi,-0x1b8(%rbp)
     c27:	89 b5 44 fe ff ff    	mov    %esi,-0x1bc(%rbp)
     c2d:	48 89 95 38 fe ff ff 	mov    %rdx,-0x1c8(%rbp)
     c34:	48 89 8d 30 fe ff ff 	mov    %rcx,-0x1d0(%rbp)
     c3b:	44 89 85 40 fe ff ff 	mov    %r8d,-0x1c0(%rbp)
     c42:	48 8b 85 30 fe ff ff 	mov    -0x1d0(%rbp),%rax
     c49:	48 89 45 f8          	mov    %rax,-0x8(%rbp)
     c4d:	48 8d 85 80 fe ff ff 	lea    -0x180(%rbp),%rax
     c54:	48 89 45 f0          	mov    %rax,-0x10(%rbp)
     c58:	48 c7 85 70 fe ff ff 	movq   $0x0,-0x190(%rbp)
     c5f:	00 00 00 00 
     c63:	48 c7 85 78 fe ff ff 	movq   $0x0,-0x188(%rbp)
     c6a:	00 00 00 00 
     c6e:	48 c7 85 60 fe ff ff 	movq   $0x0,-0x1a0(%rbp)
     c75:	00 00 00 00 
     c79:	48 c7 85 68 fe ff ff 	movq   $0x0,-0x198(%rbp)
     c80:	00 00 00 00 
     c84:	48 c7 85 50 fe ff ff 	movq   $0x0,-0x1b0(%rbp)
     c8b:	00 00 00 00 
     c8f:	48 c7 85 58 fe ff ff 	movq   $0x0,-0x1a8(%rbp)
     c96:	00 00 00 00 
     c9a:	48 83 bd 48 fe ff ff 	cmpq   $0x0,-0x1b8(%rbp)
     ca1:	00 
     ca2:	74 14                	je     cb8 <aesEncrypt+0xa7>
     ca4:	48 83 bd 38 fe ff ff 	cmpq   $0x0,-0x1c8(%rbp)
     cab:	00 
     cac:	74 0a                	je     cb8 <aesEncrypt+0xa7>
     cae:	48 83 bd 30 fe ff ff 	cmpq   $0x0,-0x1d0(%rbp)
     cb5:	00 
     cb6:	75 1e                	jne    cd6 <aesEncrypt+0xc5>
     cb8:	48 8d 05 00 00 00 00 	lea    0x0(%rip),%rax        # cbf <aesEncrypt+0xae>
     cbf:	48 89 c7             	mov    %rax,%rdi
     cc2:	b8 00 00 00 00       	mov    $0x0,%eax
     cc7:	e8 00 00 00 00       	call   ccc <aesEncrypt+0xbb>
     ccc:	b8 ff ff ff ff       	mov    $0xffffffff,%eax
     cd1:	e9 a0 01 00 00       	jmp    e76 <aesEncrypt+0x265>
     cd6:	83 bd 44 fe ff ff 10 	cmpl   $0x10,-0x1bc(%rbp)
     cdd:	76 1e                	jbe    cfd <aesEncrypt+0xec>
     cdf:	48 8d 05 00 00 00 00 	lea    0x0(%rip),%rax        # ce6 <aesEncrypt+0xd5>
     ce6:	48 89 c7             	mov    %rax,%rdi
     ce9:	b8 00 00 00 00       	mov    $0x0,%eax
     cee:	e8 00 00 00 00       	call   cf3 <aesEncrypt+0xe2>
     cf3:	b8 ff ff ff ff       	mov    $0xffffffff,%eax
     cf8:	e9 79 01 00 00       	jmp    e76 <aesEncrypt+0x265>
     cfd:	8b 85 40 fe ff ff    	mov    -0x1c0(%rbp),%eax
     d03:	83 e0 0f             	and    $0xf,%eax
     d06:	85 c0                	test   %eax,%eax
     d08:	74 1e                	je     d28 <aesEncrypt+0x117>
     d0a:	48 8d 05 00 00 00 00 	lea    0x0(%rip),%rax        # d11 <aesEncrypt+0x100>
     d11:	48 89 c7             	mov    %rax,%rdi
     d14:	b8 00 00 00 00       	mov    $0x0,%eax
     d19:	e8 00 00 00 00       	call   d1e <aesEncrypt+0x10d>
     d1e:	b8 ff ff ff ff       	mov    $0xffffffff,%eax
     d23:	e9 4e 01 00 00       	jmp    e76 <aesEncrypt+0x265>
     d28:	8b 95 44 fe ff ff    	mov    -0x1bc(%rbp),%edx
     d2e:	48 8b 8d 48 fe ff ff 	mov    -0x1b8(%rbp),%rcx
     d35:	48 8d 85 60 fe ff ff 	lea    -0x1a0(%rbp),%rax
     d3c:	48 89 ce             	mov    %rcx,%rsi
     d3f:	48 89 c7             	mov    %rax,%rdi
     d42:	e8 00 00 00 00       	call   d47 <aesEncrypt+0x136>
     d47:	48 8d 95 80 fe ff ff 	lea    -0x180(%rbp),%rdx
     d4e:	48 8d 85 60 fe ff ff 	lea    -0x1a0(%rbp),%rax
     d55:	be 10 00 00 00       	mov    $0x10,%esi
     d5a:	48 89 c7             	mov    %rax,%rdi
     d5d:	e8 00 00 00 00       	call   d62 <aesEncrypt+0x151>
     d62:	c7 45 ec 00 00 00 00 	movl   $0x0,-0x14(%rbp)
     d69:	e9 f4 00 00 00       	jmp    e62 <aesEncrypt+0x251>
     d6e:	48 8b 95 38 fe ff ff 	mov    -0x1c8(%rbp),%rdx
     d75:	48 8d 85 50 fe ff ff 	lea    -0x1b0(%rbp),%rax
     d7c:	48 89 d6             	mov    %rdx,%rsi
     d7f:	48 89 c7             	mov    %rax,%rdi
     d82:	e8 00 00 00 00       	call   d87 <aesEncrypt+0x176>
     d87:	48 8b 55 f0          	mov    -0x10(%rbp),%rdx
     d8b:	48 8d 85 50 fe ff ff 	lea    -0x1b0(%rbp),%rax
     d92:	48 89 d6             	mov    %rdx,%rsi
     d95:	48 89 c7             	mov    %rax,%rdi
     d98:	e8 00 00 00 00       	call   d9d <aesEncrypt+0x18c>
     d9d:	c7 45 e8 01 00 00 00 	movl   $0x1,-0x18(%rbp)
     da4:	eb 4c                	jmp    df2 <aesEncrypt+0x1e1>
     da6:	48 83 45 f0 10       	addq   $0x10,-0x10(%rbp)
     dab:	48 8d 85 50 fe ff ff 	lea    -0x1b0(%rbp),%rax
     db2:	48 89 c7             	mov    %rax,%rdi
     db5:	e8 00 00 00 00       	call   dba <aesEncrypt+0x1a9>
     dba:	48 8d 85 50 fe ff ff 	lea    -0x1b0(%rbp),%rax
     dc1:	48 89 c7             	mov    %rax,%rdi
     dc4:	e8 00 00 00 00       	call   dc9 <aesEncrypt+0x1b8>
     dc9:	48 8d 85 50 fe ff ff 	lea    -0x1b0(%rbp),%rax
     dd0:	48 89 c7             	mov    %rax,%rdi
     dd3:	e8 00 00 00 00       	call   dd8 <aesEncrypt+0x1c7>
     dd8:	48 8b 55 f0          	mov    -0x10(%rbp),%rdx
     ddc:	48 8d 85 50 fe ff ff 	lea    -0x1b0(%rbp),%rax
     de3:	48 89 d6             	mov    %rdx,%rsi
     de6:	48 89 c7             	mov    %rax,%rdi
     de9:	e8 00 00 00 00       	call   dee <aesEncrypt+0x1dd>
     dee:	83 45 e8 01          	addl   $0x1,-0x18(%rbp)
     df2:	83 7d e8 09          	cmpl   $0x9,-0x18(%rbp)
     df6:	7e ae                	jle    da6 <aesEncrypt+0x195>
     df8:	48 8d 85 50 fe ff ff 	lea    -0x1b0(%rbp),%rax
     dff:	48 89 c7             	mov    %rax,%rdi
     e02:	e8 00 00 00 00       	call   e07 <aesEncrypt+0x1f6>
     e07:	48 8d 85 50 fe ff ff 	lea    -0x1b0(%rbp),%rax
     e0e:	48 89 c7             	mov    %rax,%rdi
     e11:	e8 00 00 00 00       	call   e16 <aesEncrypt+0x205>
     e16:	48 8b 45 f0          	mov    -0x10(%rbp),%rax
     e1a:	48 8d 50 10          	lea    0x10(%rax),%rdx
     e1e:	48 8d 85 50 fe ff ff 	lea    -0x1b0(%rbp),%rax
     e25:	48 89 d6             	mov    %rdx,%rsi
     e28:	48 89 c7             	mov    %rax,%rdi
     e2b:	e8 00 00 00 00       	call   e30 <aesEncrypt+0x21f>
     e30:	48 8b 55 f8          	mov    -0x8(%rbp),%rdx
     e34:	48 8d 85 50 fe ff ff 	lea    -0x1b0(%rbp),%rax
     e3b:	48 89 d6             	mov    %rdx,%rsi
     e3e:	48 89 c7             	mov    %rax,%rdi
     e41:	e8 00 00 00 00       	call   e46 <aesEncrypt+0x235>
     e46:	48 83 45 f8 10       	addq   $0x10,-0x8(%rbp)
     e4b:	48 83 85 38 fe ff ff 	addq   $0x10,-0x1c8(%rbp)
     e52:	10 
     e53:	48 8d 85 80 fe ff ff 	lea    -0x180(%rbp),%rax
     e5a:	48 89 45 f0          	mov    %rax,-0x10(%rbp)
     e5e:	83 45 ec 10          	addl   $0x10,-0x14(%rbp)
     e62:	8b 45 ec             	mov    -0x14(%rbp),%eax
     e65:	39 85 40 fe ff ff    	cmp    %eax,-0x1c0(%rbp)
     e6b:	0f 87 fd fe ff ff    	ja     d6e <aesEncrypt+0x15d>
     e71:	b8 00 00 00 00       	mov    $0x0,%eax
     e76:	c9                   	leave  
     e77:	c3                   	ret    

0000000000000e78 <aesDecrypt>:
     e78:	f3 0f 1e fa          	endbr64 
     e7c:	55                   	push   %rbp
     e7d:	48 89 e5             	mov    %rsp,%rbp
     e80:	48 81 ec d0 01 00 00 	sub    $0x1d0,%rsp
     e87:	48 89 bd 48 fe ff ff 	mov    %rdi,-0x1b8(%rbp)
     e8e:	89 b5 44 fe ff ff    	mov    %esi,-0x1bc(%rbp)
     e94:	48 89 95 38 fe ff ff 	mov    %rdx,-0x1c8(%rbp)
     e9b:	48 89 8d 30 fe ff ff 	mov    %rcx,-0x1d0(%rbp)
     ea2:	44 89 85 40 fe ff ff 	mov    %r8d,-0x1c0(%rbp)
     ea9:	48 8b 85 30 fe ff ff 	mov    -0x1d0(%rbp),%rax
     eb0:	48 89 45 f8          	mov    %rax,-0x8(%rbp)
     eb4:	48 8d 85 80 fe ff ff 	lea    -0x180(%rbp),%rax
     ebb:	48 05 b0 00 00 00    	add    $0xb0,%rax
     ec1:	48 89 45 f0          	mov    %rax,-0x10(%rbp)
     ec5:	48 c7 85 70 fe ff ff 	movq   $0x0,-0x190(%rbp)
     ecc:	00 00 00 00 
     ed0:	48 c7 85 78 fe ff ff 	movq   $0x0,-0x188(%rbp)
     ed7:	00 00 00 00 
     edb:	48 c7 85 60 fe ff ff 	movq   $0x0,-0x1a0(%rbp)
     ee2:	00 00 00 00 
     ee6:	48 c7 85 68 fe ff ff 	movq   $0x0,-0x198(%rbp)
     eed:	00 00 00 00 
     ef1:	48 c7 85 50 fe ff ff 	movq   $0x0,-0x1b0(%rbp)
     ef8:	00 00 00 00 
     efc:	48 c7 85 58 fe ff ff 	movq   $0x0,-0x1a8(%rbp)
     f03:	00 00 00 00 
     f07:	48 83 bd 48 fe ff ff 	cmpq   $0x0,-0x1b8(%rbp)
     f0e:	00 
     f0f:	74 14                	je     f25 <aesDecrypt+0xad>
     f11:	48 83 bd 38 fe ff ff 	cmpq   $0x0,-0x1c8(%rbp)
     f18:	00 
     f19:	74 0a                	je     f25 <aesDecrypt+0xad>
     f1b:	48 83 bd 30 fe ff ff 	cmpq   $0x0,-0x1d0(%rbp)
     f22:	00 
     f23:	75 1e                	jne    f43 <aesDecrypt+0xcb>
     f25:	48 8d 05 00 00 00 00 	lea    0x0(%rip),%rax        # f2c <aesDecrypt+0xb4>
     f2c:	48 89 c7             	mov    %rax,%rdi
     f2f:	b8 00 00 00 00       	mov    $0x0,%eax
     f34:	e8 00 00 00 00       	call   f39 <aesDecrypt+0xc1>
     f39:	b8 ff ff ff ff       	mov    $0xffffffff,%eax
     f3e:	e9 a6 01 00 00       	jmp    10e9 <aesDecrypt+0x271>
     f43:	83 bd 44 fe ff ff 10 	cmpl   $0x10,-0x1bc(%rbp)
     f4a:	76 1e                	jbe    f6a <aesDecrypt+0xf2>
     f4c:	48 8d 05 00 00 00 00 	lea    0x0(%rip),%rax        # f53 <aesDecrypt+0xdb>
     f53:	48 89 c7             	mov    %rax,%rdi
     f56:	b8 00 00 00 00       	mov    $0x0,%eax
     f5b:	e8 00 00 00 00       	call   f60 <aesDecrypt+0xe8>
     f60:	b8 ff ff ff ff       	mov    $0xffffffff,%eax
     f65:	e9 7f 01 00 00       	jmp    10e9 <aesDecrypt+0x271>
     f6a:	8b 85 40 fe ff ff    	mov    -0x1c0(%rbp),%eax
     f70:	83 e0 0f             	and    $0xf,%eax
     f73:	85 c0                	test   %eax,%eax
     f75:	74 1e                	je     f95 <aesDecrypt+0x11d>
     f77:	48 8d 05 00 00 00 00 	lea    0x0(%rip),%rax        # f7e <aesDecrypt+0x106>
     f7e:	48 89 c7             	mov    %rax,%rdi
     f81:	b8 00 00 00 00       	mov    $0x0,%eax
     f86:	e8 00 00 00 00       	call   f8b <aesDecrypt+0x113>
     f8b:	b8 ff ff ff ff       	mov    $0xffffffff,%eax
     f90:	e9 54 01 00 00       	jmp    10e9 <aesDecrypt+0x271>
     f95:	8b 95 44 fe ff ff    	mov    -0x1bc(%rbp),%edx
     f9b:	48 8b 8d 48 fe ff ff 	mov    -0x1b8(%rbp),%rcx
     fa2:	48 8d 85 60 fe ff ff 	lea    -0x1a0(%rbp),%rax
     fa9:	48 89 ce             	mov    %rcx,%rsi
     fac:	48 89 c7             	mov    %rax,%rdi
     faf:	e8 00 00 00 00       	call   fb4 <aesDecrypt+0x13c>
     fb4:	48 8d 95 80 fe ff ff 	lea    -0x180(%rbp),%rdx
     fbb:	48 8d 85 60 fe ff ff 	lea    -0x1a0(%rbp),%rax
     fc2:	be 10 00 00 00       	mov    $0x10,%esi
     fc7:	48 89 c7             	mov    %rax,%rdi
     fca:	e8 00 00 00 00       	call   fcf <aesDecrypt+0x157>
     fcf:	c7 45 ec 00 00 00 00 	movl   $0x0,-0x14(%rbp)
     fd6:	e9 fa 00 00 00       	jmp    10d5 <aesDecrypt+0x25d>
     fdb:	48 8b 95 38 fe ff ff 	mov    -0x1c8(%rbp),%rdx
     fe2:	48 8d 85 50 fe ff ff 	lea    -0x1b0(%rbp),%rax
     fe9:	48 89 d6             	mov    %rdx,%rsi
     fec:	48 89 c7             	mov    %rax,%rdi
     fef:	e8 00 00 00 00       	call   ff4 <aesDecrypt+0x17c>
     ff4:	48 8b 55 f0          	mov    -0x10(%rbp),%rdx
     ff8:	48 8d 85 50 fe ff ff 	lea    -0x1b0(%rbp),%rax
     fff:	48 89 d6             	mov    %rdx,%rsi
    1002:	48 89 c7             	mov    %rax,%rdi
    1005:	e8 00 00 00 00       	call   100a <aesDecrypt+0x192>
    100a:	c7 45 e8 01 00 00 00 	movl   $0x1,-0x18(%rbp)
    1011:	eb 4c                	jmp    105f <aesDecrypt+0x1e7>
    1013:	48 83 45 f0 10       	addq   $0x10,-0x10(%rbp)
    1018:	48 8d 85 50 fe ff ff 	lea    -0x1b0(%rbp),%rax
    101f:	48 89 c7             	mov    %rax,%rdi
    1022:	e8 00 00 00 00       	call   1027 <aesDecrypt+0x1af>
    1027:	48 8d 85 50 fe ff ff 	lea    -0x1b0(%rbp),%rax
    102e:	48 89 c7             	mov    %rax,%rdi
    1031:	e8 00 00 00 00       	call   1036 <aesDecrypt+0x1be>
    1036:	48 8b 55 f0          	mov    -0x10(%rbp),%rdx
    103a:	48 8d 85 50 fe ff ff 	lea    -0x1b0(%rbp),%rax
    1041:	48 89 d6             	mov    %rdx,%rsi
    1044:	48 89 c7             	mov    %rax,%rdi
    1047:	e8 00 00 00 00       	call   104c <aesDecrypt+0x1d4>
    104c:	48 8d 85 50 fe ff ff 	lea    -0x1b0(%rbp),%rax
    1053:	48 89 c7             	mov    %rax,%rdi
    1056:	e8 00 00 00 00       	call   105b <aesDecrypt+0x1e3>
    105b:	83 45 e8 01          	addl   $0x1,-0x18(%rbp)
    105f:	83 7d e8 09          	cmpl   $0x9,-0x18(%rbp)
    1063:	7e ae                	jle    1013 <aesDecrypt+0x19b>
    1065:	48 8d 85 50 fe ff ff 	lea    -0x1b0(%rbp),%rax
    106c:	48 89 c7             	mov    %rax,%rdi
    106f:	e8 00 00 00 00       	call   1074 <aesDecrypt+0x1fc>
    1074:	48 8d 85 50 fe ff ff 	lea    -0x1b0(%rbp),%rax
    107b:	48 89 c7             	mov    %rax,%rdi
    107e:	e8 00 00 00 00       	call   1083 <aesDecrypt+0x20b>
    1083:	48 8b 45 f0          	mov    -0x10(%rbp),%rax
    1087:	48 8d 50 10          	lea    0x10(%rax),%rdx
    108b:	48 8d 85 50 fe ff ff 	lea    -0x1b0(%rbp),%rax
    1092:	48 89 d6             	mov    %rdx,%rsi
    1095:	48 89 c7             	mov    %rax,%rdi
    1098:	e8 00 00 00 00       	call   109d <aesDecrypt+0x225>
    109d:	48 8b 55 f8          	mov    -0x8(%rbp),%rdx
    10a1:	48 8d 85 50 fe ff ff 	lea    -0x1b0(%rbp),%rax
    10a8:	48 89 d6             	mov    %rdx,%rsi
    10ab:	48 89 c7             	mov    %rax,%rdi
    10ae:	e8 00 00 00 00       	call   10b3 <aesDecrypt+0x23b>
    10b3:	48 83 45 f8 10       	addq   $0x10,-0x8(%rbp)
    10b8:	48 83 85 38 fe ff ff 	addq   $0x10,-0x1c8(%rbp)
    10bf:	10 
    10c0:	48 8d 85 80 fe ff ff 	lea    -0x180(%rbp),%rax
    10c7:	48 05 b0 00 00 00    	add    $0xb0,%rax
    10cd:	48 89 45 f0          	mov    %rax,-0x10(%rbp)
    10d1:	83 45 ec 10          	addl   $0x10,-0x14(%rbp)
    10d5:	8b 45 ec             	mov    -0x14(%rbp),%eax
    10d8:	39 85 40 fe ff ff    	cmp    %eax,-0x1c0(%rbp)
    10de:	0f 87 f7 fe ff ff    	ja     fdb <aesDecrypt+0x163>
    10e4:	b8 00 00 00 00       	mov    $0x0,%eax
    10e9:	c9                   	leave  
    10ea:	c3                   	ret    

00000000000010eb <modpow>:
    10eb:	f3 0f 1e fa          	endbr64 
    10ef:	55                   	push   %rbp
    10f0:	48 89 e5             	mov    %rsp,%rbp
    10f3:	48 89 7d e8          	mov    %rdi,-0x18(%rbp)
    10f7:	48 89 75 e0          	mov    %rsi,-0x20(%rbp)
    10fb:	89 55 dc             	mov    %edx,-0x24(%rbp)
    10fe:	c7 45 fc 01 00 00 00 	movl   $0x1,-0x4(%rbp)
    1105:	eb 42                	jmp    1149 <modpow+0x5e>
    1107:	48 8b 45 e0          	mov    -0x20(%rbp),%rax
    110b:	83 e0 01             	and    $0x1,%eax
    110e:	48 85 c0             	test   %rax,%rax
    1111:	74 1b                	je     112e <modpow+0x43>
    1113:	8b 45 fc             	mov    -0x4(%rbp),%eax
    1116:	48 98                	cltq   
    1118:	48 0f af 45 e8       	imul   -0x18(%rbp),%rax
    111d:	8b 55 dc             	mov    -0x24(%rbp),%edx
    1120:	48 63 ca             	movslq %edx,%rcx
    1123:	48 99                	cqto   
    1125:	48 f7 f9             	idiv   %rcx
    1128:	48 89 d0             	mov    %rdx,%rax
    112b:	89 45 fc             	mov    %eax,-0x4(%rbp)
    112e:	48 d1 7d e0          	sarq   -0x20(%rbp)
    1132:	48 8b 45 e8          	mov    -0x18(%rbp),%rax
    1136:	48 0f af c0          	imul   %rax,%rax
    113a:	8b 55 dc             	mov    -0x24(%rbp),%edx
    113d:	48 63 ca             	movslq %edx,%rcx
    1140:	48 99                	cqto   
    1142:	48 f7 f9             	idiv   %rcx
    1145:	48 89 55 e8          	mov    %rdx,-0x18(%rbp)
    1149:	48 83 7d e0 00       	cmpq   $0x0,-0x20(%rbp)
    114e:	7f b7                	jg     1107 <modpow+0x1c>
    1150:	8b 45 fc             	mov    -0x4(%rbp),%eax
    1153:	5d                   	pop    %rbp
    1154:	c3                   	ret    

0000000000001155 <jacobi>:
    1155:	f3 0f 1e fa          	endbr64 
    1159:	55                   	push   %rbp
    115a:	48 89 e5             	mov    %rsp,%rbp
    115d:	89 7d ec             	mov    %edi,-0x14(%rbp)
    1160:	89 75 e8             	mov    %esi,-0x18(%rbp)
    1163:	c7 45 f8 01 00 00 00 	movl   $0x1,-0x8(%rbp)
    116a:	e9 ee 00 00 00       	jmp    125d <jacobi+0x108>
    116f:	8b 45 ec             	mov    -0x14(%rbp),%eax
    1172:	99                   	cltd   
    1173:	f7 7d e8             	idivl  -0x18(%rbp)
    1176:	89 55 ec             	mov    %edx,-0x14(%rbp)
    1179:	83 7d ec 01          	cmpl   $0x1,-0x14(%rbp)
    117d:	0f 8e ec 00 00 00    	jle    126f <jacobi+0x11a>
    1183:	8b 45 ec             	mov    -0x14(%rbp),%eax
    1186:	3b 45 e8             	cmp    -0x18(%rbp),%eax
    1189:	0f 84 e0 00 00 00    	je     126f <jacobi+0x11a>
    118f:	c7 45 fc 00 00 00 00 	movl   $0x0,-0x4(%rbp)
    1196:	eb 0f                	jmp    11a7 <jacobi+0x52>
    1198:	8b 45 ec             	mov    -0x14(%rbp),%eax
    119b:	89 c2                	mov    %eax,%edx
    119d:	c1 ea 1f             	shr    $0x1f,%edx
    11a0:	01 d0                	add    %edx,%eax
    11a2:	d1 f8                	sar    %eax
    11a4:	89 45 ec             	mov    %eax,-0x14(%rbp)
    11a7:	8b 45 ec             	mov    -0x14(%rbp),%eax
    11aa:	83 e0 01             	and    $0x1,%eax
    11ad:	85 c0                	test   %eax,%eax
    11af:	75 0a                	jne    11bb <jacobi+0x66>
    11b1:	83 45 fc 01          	addl   $0x1,-0x4(%rbp)
    11b5:	83 7d fc 00          	cmpl   $0x0,-0x4(%rbp)
    11b9:	75 dd                	jne    1198 <jacobi+0x43>
    11bb:	83 7d fc 00          	cmpl   $0x0,-0x4(%rbp)
    11bf:	7e 53                	jle    1214 <jacobi+0xbf>
    11c1:	8b 45 fc             	mov    -0x4(%rbp),%eax
    11c4:	99                   	cltd   
    11c5:	c1 ea 1f             	shr    $0x1f,%edx
    11c8:	01 d0                	add    %edx,%eax
    11ca:	83 e0 01             	and    $0x1,%eax
    11cd:	29 d0                	sub    %edx,%eax
    11cf:	83 f8 01             	cmp    $0x1,%eax
    11d2:	75 40                	jne    1214 <jacobi+0xbf>
    11d4:	8b 45 e8             	mov    -0x18(%rbp),%eax
    11d7:	99                   	cltd   
    11d8:	c1 ea 1d             	shr    $0x1d,%edx
    11db:	01 d0                	add    %edx,%eax
    11dd:	83 e0 07             	and    $0x7,%eax
    11e0:	29 d0                	sub    %edx,%eax
    11e2:	83 f8 01             	cmp    $0x1,%eax
    11e5:	74 13                	je     11fa <jacobi+0xa5>
    11e7:	8b 45 e8             	mov    -0x18(%rbp),%eax
    11ea:	99                   	cltd   
    11eb:	c1 ea 1d             	shr    $0x1d,%edx
    11ee:	01 d0                	add    %edx,%eax
    11f0:	83 e0 07             	and    $0x7,%eax
    11f3:	29 d0                	sub    %edx,%eax
    11f5:	83 f8 07             	cmp    $0x7,%eax
    11f8:	75 07                	jne    1201 <jacobi+0xac>
    11fa:	b8 01 00 00 00       	mov    $0x1,%eax
    11ff:	eb 05                	jmp    1206 <jacobi+0xb1>
    1201:	b8 00 00 00 00       	mov    $0x0,%eax
    1206:	01 c0                	add    %eax,%eax
    1208:	8d 50 ff             	lea    -0x1(%rax),%edx
    120b:	8b 45 f8             	mov    -0x8(%rbp),%eax
    120e:	0f af c2             	imul   %edx,%eax
    1211:	89 45 f8             	mov    %eax,-0x8(%rbp)
    1214:	83 7d ec 01          	cmpl   $0x1,-0x14(%rbp)
    1218:	7e 55                	jle    126f <jacobi+0x11a>
    121a:	8b 45 ec             	mov    -0x14(%rbp),%eax
    121d:	3b 45 e8             	cmp    -0x18(%rbp),%eax
    1220:	74 4d                	je     126f <jacobi+0x11a>
    1222:	8b 45 e8             	mov    -0x18(%rbp),%eax
    1225:	99                   	cltd   
    1226:	c1 ea 1e             	shr    $0x1e,%edx
    1229:	01 d0                	add    %edx,%eax
    122b:	83 e0 03             	and    $0x3,%eax
    122e:	29 d0                	sub    %edx,%eax
    1230:	83 f8 01             	cmp    $0x1,%eax
    1233:	74 16                	je     124b <jacobi+0xf6>
    1235:	8b 45 ec             	mov    -0x14(%rbp),%eax
    1238:	99                   	cltd   
    1239:	c1 ea 1e             	shr    $0x1e,%edx
    123c:	01 d0                	add    %edx,%eax
    123e:	83 e0 03             	and    $0x3,%eax
    1241:	29 d0                	sub    %edx,%eax
    1243:	83 f8 01             	cmp    $0x1,%eax
    1246:	74 03                	je     124b <jacobi+0xf6>
    1248:	f7 5d f8             	negl   -0x8(%rbp)
    124b:	8b 45 ec             	mov    -0x14(%rbp),%eax
    124e:	89 45 f4             	mov    %eax,-0xc(%rbp)
    1251:	8b 45 e8             	mov    -0x18(%rbp),%eax
    1254:	89 45 ec             	mov    %eax,-0x14(%rbp)
    1257:	8b 45 f4             	mov    -0xc(%rbp),%eax
    125a:	89 45 e8             	mov    %eax,-0x18(%rbp)
    125d:	83 7d ec 01          	cmpl   $0x1,-0x14(%rbp)
    1261:	7e 0c                	jle    126f <jacobi+0x11a>
    1263:	8b 45 ec             	mov    -0x14(%rbp),%eax
    1266:	3b 45 e8             	cmp    -0x18(%rbp),%eax
    1269:	0f 85 00 ff ff ff    	jne    116f <jacobi+0x1a>
    126f:	83 7d ec 00          	cmpl   $0x0,-0x14(%rbp)
    1273:	75 07                	jne    127c <jacobi+0x127>
    1275:	b8 00 00 00 00       	mov    $0x0,%eax
    127a:	eb 10                	jmp    128c <jacobi+0x137>
    127c:	83 7d ec 01          	cmpl   $0x1,-0x14(%rbp)
    1280:	75 05                	jne    1287 <jacobi+0x132>
    1282:	8b 45 f8             	mov    -0x8(%rbp),%eax
    1285:	eb 05                	jmp    128c <jacobi+0x137>
    1287:	b8 00 00 00 00       	mov    $0x0,%eax
    128c:	5d                   	pop    %rbp
    128d:	c3                   	ret    

000000000000128e <solovayPrime>:
    128e:	f3 0f 1e fa          	endbr64 
    1292:	55                   	push   %rbp
    1293:	48 89 e5             	mov    %rsp,%rbp
    1296:	48 83 ec 20          	sub    $0x20,%rsp
    129a:	89 7d ec             	mov    %edi,-0x14(%rbp)
    129d:	89 75 e8             	mov    %esi,-0x18(%rbp)
    12a0:	8b 55 e8             	mov    -0x18(%rbp),%edx
    12a3:	8b 45 ec             	mov    -0x14(%rbp),%eax
    12a6:	89 d6                	mov    %edx,%esi
    12a8:	89 c7                	mov    %eax,%edi
    12aa:	e8 00 00 00 00       	call   12af <solovayPrime+0x21>
    12af:	89 45 fc             	mov    %eax,-0x4(%rbp)
    12b2:	83 7d fc ff          	cmpl   $0xffffffff,-0x4(%rbp)
    12b6:	75 09                	jne    12c1 <solovayPrime+0x33>
    12b8:	8b 45 e8             	mov    -0x18(%rbp),%eax
    12bb:	83 e8 01             	sub    $0x1,%eax
    12be:	89 45 fc             	mov    %eax,-0x4(%rbp)
    12c1:	83 7d fc 00          	cmpl   $0x0,-0x4(%rbp)
    12c5:	74 31                	je     12f8 <solovayPrime+0x6a>
    12c7:	8b 45 e8             	mov    -0x18(%rbp),%eax
    12ca:	83 e8 01             	sub    $0x1,%eax
    12cd:	89 c2                	mov    %eax,%edx
    12cf:	c1 ea 1f             	shr    $0x1f,%edx
    12d2:	01 d0                	add    %edx,%eax
    12d4:	d1 f8                	sar    %eax
    12d6:	48 63 c8             	movslq %eax,%rcx
    12d9:	8b 45 ec             	mov    -0x14(%rbp),%eax
    12dc:	48 98                	cltq   
    12de:	8b 55 e8             	mov    -0x18(%rbp),%edx
    12e1:	48 89 ce             	mov    %rcx,%rsi
    12e4:	48 89 c7             	mov    %rax,%rdi
    12e7:	e8 00 00 00 00       	call   12ec <solovayPrime+0x5e>
    12ec:	39 45 fc             	cmp    %eax,-0x4(%rbp)
    12ef:	75 07                	jne    12f8 <solovayPrime+0x6a>
    12f1:	b8 01 00 00 00       	mov    $0x1,%eax
    12f6:	eb 05                	jmp    12fd <solovayPrime+0x6f>
    12f8:	b8 00 00 00 00       	mov    $0x0,%eax
    12fd:	c9                   	leave  
    12fe:	c3                   	ret    

00000000000012ff <probablePrime>:
    12ff:	f3 0f 1e fa          	endbr64 
    1303:	55                   	push   %rbp
    1304:	48 89 e5             	mov    %rsp,%rbp
    1307:	48 83 ec 10          	sub    $0x10,%rsp
    130b:	89 7d fc             	mov    %edi,-0x4(%rbp)
    130e:	89 75 f8             	mov    %esi,-0x8(%rbp)
    1311:	83 7d fc 02          	cmpl   $0x2,-0x4(%rbp)
    1315:	75 07                	jne    131e <probablePrime+0x1f>
    1317:	b8 01 00 00 00       	mov    $0x1,%eax
    131c:	eb 53                	jmp    1371 <probablePrime+0x72>
    131e:	8b 45 fc             	mov    -0x4(%rbp),%eax
    1321:	83 e0 01             	and    $0x1,%eax
    1324:	85 c0                	test   %eax,%eax
    1326:	74 06                	je     132e <probablePrime+0x2f>
    1328:	83 7d fc 01          	cmpl   $0x1,-0x4(%rbp)
    132c:	75 31                	jne    135f <probablePrime+0x60>
    132e:	b8 00 00 00 00       	mov    $0x0,%eax
    1333:	eb 3c                	jmp    1371 <probablePrime+0x72>
    1335:	e8 00 00 00 00       	call   133a <probablePrime+0x3b>
    133a:	8b 55 fc             	mov    -0x4(%rbp),%edx
    133d:	8d 4a fe             	lea    -0x2(%rdx),%ecx
    1340:	99                   	cltd   
    1341:	f7 f9                	idiv   %ecx
    1343:	89 d0                	mov    %edx,%eax
    1345:	8d 50 02             	lea    0x2(%rax),%edx
    1348:	8b 45 fc             	mov    -0x4(%rbp),%eax
    134b:	89 c6                	mov    %eax,%esi
    134d:	89 d7                	mov    %edx,%edi
    134f:	e8 00 00 00 00       	call   1354 <probablePrime+0x55>
    1354:	85 c0                	test   %eax,%eax
    1356:	75 07                	jne    135f <probablePrime+0x60>
    1358:	b8 00 00 00 00       	mov    $0x0,%eax
    135d:	eb 12                	jmp    1371 <probablePrime+0x72>
    135f:	8b 45 f8             	mov    -0x8(%rbp),%eax
    1362:	8d 50 ff             	lea    -0x1(%rax),%edx
    1365:	89 55 f8             	mov    %edx,-0x8(%rbp)
    1368:	85 c0                	test   %eax,%eax
    136a:	7f c9                	jg     1335 <probablePrime+0x36>
    136c:	b8 01 00 00 00       	mov    $0x1,%eax
    1371:	c9                   	leave  
    1372:	c3                   	ret    

0000000000001373 <randPrime>:
    1373:	f3 0f 1e fa          	endbr64 
    1377:	55                   	push   %rbp
    1378:	48 89 e5             	mov    %rsp,%rbp
    137b:	48 83 ec 20          	sub    $0x20,%rsp
    137f:	89 7d ec             	mov    %edi,-0x14(%rbp)
    1382:	e8 00 00 00 00       	call   1387 <randPrime+0x14>
    1387:	99                   	cltd   
    1388:	f7 7d ec             	idivl  -0x14(%rbp)
    138b:	89 55 fc             	mov    %edx,-0x4(%rbp)
    138e:	8b 45 ec             	mov    -0x14(%rbp),%eax
    1391:	99                   	cltd   
    1392:	c1 ea 1f             	shr    $0x1f,%edx
    1395:	01 d0                	add    %edx,%eax
    1397:	83 e0 01             	and    $0x1,%eax
    139a:	29 d0                	sub    %edx,%eax
    139c:	01 45 ec             	add    %eax,-0x14(%rbp)
    139f:	8b 45 fc             	mov    -0x4(%rbp),%eax
    13a2:	99                   	cltd   
    13a3:	c1 ea 1f             	shr    $0x1f,%edx
    13a6:	01 d0                	add    %edx,%eax
    13a8:	83 e0 01             	and    $0x1,%eax
    13ab:	29 d0                	sub    %edx,%eax
    13ad:	89 c2                	mov    %eax,%edx
    13af:	b8 01 00 00 00       	mov    $0x1,%eax
    13b4:	29 d0                	sub    %edx,%eax
    13b6:	01 45 fc             	add    %eax,-0x4(%rbp)
    13b9:	8b 45 fc             	mov    -0x4(%rbp),%eax
    13bc:	be 05 00 00 00       	mov    $0x5,%esi
    13c1:	89 c7                	mov    %eax,%edi
    13c3:	e8 00 00 00 00       	call   13c8 <randPrime+0x55>
    13c8:	85 c0                	test   %eax,%eax
    13ca:	74 05                	je     13d1 <randPrime+0x5e>
    13cc:	8b 45 fc             	mov    -0x4(%rbp),%eax
    13cf:	eb 0f                	jmp    13e0 <randPrime+0x6d>
    13d1:	8b 45 fc             	mov    -0x4(%rbp),%eax
    13d4:	83 c0 02             	add    $0x2,%eax
    13d7:	99                   	cltd   
    13d8:	f7 7d ec             	idivl  -0x14(%rbp)
    13db:	89 55 fc             	mov    %edx,-0x4(%rbp)
    13de:	eb d9                	jmp    13b9 <randPrime+0x46>
    13e0:	c9                   	leave  
    13e1:	c3                   	ret    

00000000000013e2 <gcd>:
    13e2:	f3 0f 1e fa          	endbr64 
    13e6:	55                   	push   %rbp
    13e7:	48 89 e5             	mov    %rsp,%rbp
    13ea:	89 7d ec             	mov    %edi,-0x14(%rbp)
    13ed:	89 75 e8             	mov    %esi,-0x18(%rbp)
    13f0:	eb 16                	jmp    1408 <gcd+0x26>
    13f2:	8b 45 e8             	mov    -0x18(%rbp),%eax
    13f5:	89 45 fc             	mov    %eax,-0x4(%rbp)
    13f8:	8b 45 ec             	mov    -0x14(%rbp),%eax
    13fb:	99                   	cltd   
    13fc:	f7 7d e8             	idivl  -0x18(%rbp)
    13ff:	89 55 e8             	mov    %edx,-0x18(%rbp)
    1402:	8b 45 fc             	mov    -0x4(%rbp),%eax
    1405:	89 45 ec             	mov    %eax,-0x14(%rbp)
    1408:	83 7d e8 00          	cmpl   $0x0,-0x18(%rbp)
    140c:	75 e4                	jne    13f2 <gcd+0x10>
    140e:	8b 45 ec             	mov    -0x14(%rbp),%eax
    1411:	5d                   	pop    %rbp
    1412:	c3                   	ret    

0000000000001413 <randExponent>:
    1413:	f3 0f 1e fa          	endbr64 
    1417:	55                   	push   %rbp
    1418:	48 89 e5             	mov    %rsp,%rbp
    141b:	48 83 ec 20          	sub    $0x20,%rsp
    141f:	89 7d ec             	mov    %edi,-0x14(%rbp)
    1422:	89 75 e8             	mov    %esi,-0x18(%rbp)
    1425:	e8 00 00 00 00       	call   142a <randExponent+0x17>
    142a:	99                   	cltd   
    142b:	f7 7d e8             	idivl  -0x18(%rbp)
    142e:	89 55 fc             	mov    %edx,-0x4(%rbp)
    1431:	8b 55 ec             	mov    -0x14(%rbp),%edx
    1434:	8b 45 fc             	mov    -0x4(%rbp),%eax
    1437:	89 d6                	mov    %edx,%esi
    1439:	89 c7                	mov    %eax,%edi
    143b:	e8 00 00 00 00       	call   1440 <randExponent+0x2d>
    1440:	83 f8 01             	cmp    $0x1,%eax
    1443:	75 05                	jne    144a <randExponent+0x37>
    1445:	8b 45 fc             	mov    -0x4(%rbp),%eax
    1448:	eb 1c                	jmp    1466 <randExponent+0x53>
    144a:	8b 45 fc             	mov    -0x4(%rbp),%eax
    144d:	83 c0 01             	add    $0x1,%eax
    1450:	99                   	cltd   
    1451:	f7 7d e8             	idivl  -0x18(%rbp)
    1454:	89 55 fc             	mov    %edx,-0x4(%rbp)
    1457:	83 7d fc 02          	cmpl   $0x2,-0x4(%rbp)
    145b:	7f d4                	jg     1431 <randExponent+0x1e>
    145d:	c7 45 fc 03 00 00 00 	movl   $0x3,-0x4(%rbp)
    1464:	eb cb                	jmp    1431 <randExponent+0x1e>
    1466:	c9                   	leave  
    1467:	c3                   	ret    

0000000000001468 <inverse>:
    1468:	f3 0f 1e fa          	endbr64 
    146c:	55                   	push   %rbp
    146d:	48 89 e5             	mov    %rsp,%rbp
    1470:	89 7d dc             	mov    %edi,-0x24(%rbp)
    1473:	89 75 d8             	mov    %esi,-0x28(%rbp)
    1476:	8b 45 dc             	mov    -0x24(%rbp),%eax
    1479:	89 45 fc             	mov    %eax,-0x4(%rbp)
    147c:	8b 45 d8             	mov    -0x28(%rbp),%eax
    147f:	89 45 f8             	mov    %eax,-0x8(%rbp)
    1482:	c7 45 f4 00 00 00 00 	movl   $0x0,-0xc(%rbp)
    1489:	c7 45 f0 01 00 00 00 	movl   $0x1,-0x10(%rbp)
    1490:	c7 45 ec 01 00 00 00 	movl   $0x1,-0x14(%rbp)
    1497:	c7 45 e8 00 00 00 00 	movl   $0x0,-0x18(%rbp)
    149e:	eb 5a                	jmp    14fa <inverse+0x92>
    14a0:	8b 45 fc             	mov    -0x4(%rbp),%eax
    14a3:	99                   	cltd   
    14a4:	f7 7d f8             	idivl  -0x8(%rbp)
    14a7:	89 45 e4             	mov    %eax,-0x1c(%rbp)
    14aa:	8b 45 fc             	mov    -0x4(%rbp),%eax
    14ad:	99                   	cltd   
    14ae:	f7 7d f8             	idivl  -0x8(%rbp)
    14b1:	89 55 e0             	mov    %edx,-0x20(%rbp)
    14b4:	8b 45 f8             	mov    -0x8(%rbp),%eax
    14b7:	89 45 fc             	mov    %eax,-0x4(%rbp)
    14ba:	8b 45 e0             	mov    -0x20(%rbp),%eax
    14bd:	89 45 f8             	mov    %eax,-0x8(%rbp)
    14c0:	8b 45 f4             	mov    -0xc(%rbp),%eax
    14c3:	89 45 e0             	mov    %eax,-0x20(%rbp)
    14c6:	8b 45 e4             	mov    -0x1c(%rbp),%eax
    14c9:	0f af 45 f4          	imul   -0xc(%rbp),%eax
    14cd:	89 c2                	mov    %eax,%edx
    14cf:	8b 45 ec             	mov    -0x14(%rbp),%eax
    14d2:	29 d0                	sub    %edx,%eax
    14d4:	89 45 f4             	mov    %eax,-0xc(%rbp)
    14d7:	8b 45 e0             	mov    -0x20(%rbp),%eax
    14da:	89 45 ec             	mov    %eax,-0x14(%rbp)
    14dd:	8b 45 f0             	mov    -0x10(%rbp),%eax
    14e0:	89 45 e0             	mov    %eax,-0x20(%rbp)
    14e3:	8b 45 e4             	mov    -0x1c(%rbp),%eax
    14e6:	0f af 45 f0          	imul   -0x10(%rbp),%eax
    14ea:	89 c2                	mov    %eax,%edx
    14ec:	8b 45 e8             	mov    -0x18(%rbp),%eax
    14ef:	29 d0                	sub    %edx,%eax
    14f1:	89 45 f0             	mov    %eax,-0x10(%rbp)
    14f4:	8b 45 e0             	mov    -0x20(%rbp),%eax
    14f7:	89 45 e8             	mov    %eax,-0x18(%rbp)
    14fa:	83 7d f8 00          	cmpl   $0x0,-0x8(%rbp)
    14fe:	75 a0                	jne    14a0 <inverse+0x38>
    1500:	83 7d ec 00          	cmpl   $0x0,-0x14(%rbp)
    1504:	79 06                	jns    150c <inverse+0xa4>
    1506:	8b 45 d8             	mov    -0x28(%rbp),%eax
    1509:	01 45 ec             	add    %eax,-0x14(%rbp)
    150c:	8b 45 ec             	mov    -0x14(%rbp),%eax
    150f:	5d                   	pop    %rbp
    1510:	c3                   	ret    

0000000000001511 <readFile>:
    1511:	f3 0f 1e fa          	endbr64 
    1515:	55                   	push   %rbp
    1516:	48 89 e5             	mov    %rsp,%rbp
    1519:	48 81 ec 30 04 00 00 	sub    $0x430,%rsp
    1520:	48 89 bd e8 fb ff ff 	mov    %rdi,-0x418(%rbp)
    1527:	48 89 b5 e0 fb ff ff 	mov    %rsi,-0x420(%rbp)
    152e:	89 95 dc fb ff ff    	mov    %edx,-0x424(%rbp)
    1534:	c7 45 fc 00 00 00 00 	movl   $0x0,-0x4(%rbp)
    153b:	c7 45 f8 00 04 00 00 	movl   $0x400,-0x8(%rbp)
    1542:	bf 00 04 00 00       	mov    $0x400,%edi
    1547:	e8 00 00 00 00       	call   154c <readFile+0x3b>
    154c:	48 89 c2             	mov    %rax,%rdx
    154f:	48 8b 85 e0 fb ff ff 	mov    -0x420(%rbp),%rax
    1556:	48 89 10             	mov    %rdx,(%rax)
    1559:	eb 65                	jmp    15c0 <readFile+0xaf>
    155b:	8b 55 fc             	mov    -0x4(%rbp),%edx
    155e:	8b 45 f4             	mov    -0xc(%rbp),%eax
    1561:	01 d0                	add    %edx,%eax
    1563:	39 45 f8             	cmp    %eax,-0x8(%rbp)
    1566:	7f 28                	jg     1590 <readFile+0x7f>
    1568:	d1 65 f8             	shll   -0x8(%rbp)
    156b:	8b 45 f8             	mov    -0x8(%rbp),%eax
    156e:	48 63 d0             	movslq %eax,%rdx
    1571:	48 8b 85 e0 fb ff ff 	mov    -0x420(%rbp),%rax
    1578:	48 8b 00             	mov    (%rax),%rax
    157b:	48 89 d6             	mov    %rdx,%rsi
    157e:	48 89 c7             	mov    %rax,%rdi
    1581:	e8 00 00 00 00       	call   1586 <readFile+0x75>
    1586:	48 8b 95 e0 fb ff ff 	mov    -0x420(%rbp),%rdx
    158d:	48 89 02             	mov    %rax,(%rdx)
    1590:	8b 45 f4             	mov    -0xc(%rbp),%eax
    1593:	48 63 d0             	movslq %eax,%rdx
    1596:	48 8b 85 e0 fb ff ff 	mov    -0x420(%rbp),%rax
    159d:	48 8b 08             	mov    (%rax),%rcx
    15a0:	8b 45 fc             	mov    -0x4(%rbp),%eax
    15a3:	48 98                	cltq   
    15a5:	48 01 c1             	add    %rax,%rcx
    15a8:	48 8d 85 f0 fb ff ff 	lea    -0x410(%rbp),%rax
    15af:	48 89 c6             	mov    %rax,%rsi
    15b2:	48 89 cf             	mov    %rcx,%rdi
    15b5:	e8 00 00 00 00       	call   15ba <readFile+0xa9>
    15ba:	8b 45 f4             	mov    -0xc(%rbp),%eax
    15bd:	01 45 fc             	add    %eax,-0x4(%rbp)
    15c0:	48 8b 95 e8 fb ff ff 	mov    -0x418(%rbp),%rdx
    15c7:	48 8d 85 f0 fb ff ff 	lea    -0x410(%rbp),%rax
    15ce:	48 89 d1             	mov    %rdx,%rcx
    15d1:	ba 00 04 00 00       	mov    $0x400,%edx
    15d6:	be 01 00 00 00       	mov    $0x1,%esi
    15db:	48 89 c7             	mov    %rax,%rdi
    15de:	e8 00 00 00 00       	call   15e3 <readFile+0xd2>
    15e3:	89 45 f4             	mov    %eax,-0xc(%rbp)
    15e6:	83 7d f4 00          	cmpl   $0x0,-0xc(%rbp)
    15ea:	0f 8f 6b ff ff ff    	jg     155b <readFile+0x4a>
    15f0:	8b 55 fc             	mov    -0x4(%rbp),%edx
    15f3:	8b 85 dc fb ff ff    	mov    -0x424(%rbp),%eax
    15f9:	8d 0c 02             	lea    (%rdx,%rax,1),%ecx
    15fc:	8b 45 fc             	mov    -0x4(%rbp),%eax
    15ff:	99                   	cltd   
    1600:	f7 bd dc fb ff ff    	idivl  -0x424(%rbp)
    1606:	89 c8                	mov    %ecx,%eax
    1608:	29 d0                	sub    %edx,%eax
    160a:	39 45 f8             	cmp    %eax,-0x8(%rbp)
    160d:	7d 3c                	jge    164b <readFile+0x13a>
    160f:	8b 55 fc             	mov    -0x4(%rbp),%edx
    1612:	8b 85 dc fb ff ff    	mov    -0x424(%rbp),%eax
    1618:	8d 0c 02             	lea    (%rdx,%rax,1),%ecx
    161b:	8b 45 fc             	mov    -0x4(%rbp),%eax
    161e:	99                   	cltd   
    161f:	f7 bd dc fb ff ff    	idivl  -0x424(%rbp)
    1625:	89 c8                	mov    %ecx,%eax
    1627:	29 d0                	sub    %edx,%eax
    1629:	48 63 d0             	movslq %eax,%rdx
    162c:	48 8b 85 e0 fb ff ff 	mov    -0x420(%rbp),%rax
    1633:	48 8b 00             	mov    (%rax),%rax
    1636:	48 89 d6             	mov    %rdx,%rsi
    1639:	48 89 c7             	mov    %rax,%rdi
    163c:	e8 00 00 00 00       	call   1641 <readFile+0x130>
    1641:	48 8b 95 e0 fb ff ff 	mov    -0x420(%rbp),%rdx
    1648:	48 89 02             	mov    %rax,(%rdx)
    164b:	48 8b 85 e0 fb ff ff 	mov    -0x420(%rbp),%rax
    1652:	48 8b 10             	mov    (%rax),%rdx
    1655:	8b 45 fc             	mov    -0x4(%rbp),%eax
    1658:	48 98                	cltq   
    165a:	48 01 d0             	add    %rdx,%rax
    165d:	c6 00 00             	movb   $0x0,(%rax)
    1660:	83 45 fc 01          	addl   $0x1,-0x4(%rbp)
    1664:	8b 45 fc             	mov    -0x4(%rbp),%eax
    1667:	99                   	cltd   
    1668:	f7 bd dc fb ff ff    	idivl  -0x424(%rbp)
    166e:	89 d0                	mov    %edx,%eax
    1670:	85 c0                	test   %eax,%eax
    1672:	75 d7                	jne    164b <readFile+0x13a>
    1674:	8b 45 fc             	mov    -0x4(%rbp),%eax
    1677:	c9                   	leave  
    1678:	c3                   	ret    

0000000000001679 <encode>:
    1679:	f3 0f 1e fa          	endbr64 
    167d:	55                   	push   %rbp
    167e:	48 89 e5             	mov    %rsp,%rbp
    1681:	48 83 ec 10          	sub    $0x10,%rsp
    1685:	89 7d fc             	mov    %edi,-0x4(%rbp)
    1688:	89 75 f8             	mov    %esi,-0x8(%rbp)
    168b:	89 55 f4             	mov    %edx,-0xc(%rbp)
    168e:	8b 45 f8             	mov    -0x8(%rbp),%eax
    1691:	48 63 c8             	movslq %eax,%rcx
    1694:	8b 45 fc             	mov    -0x4(%rbp),%eax
    1697:	48 98                	cltq   
    1699:	8b 55 f4             	mov    -0xc(%rbp),%edx
    169c:	48 89 ce             	mov    %rcx,%rsi
    169f:	48 89 c7             	mov    %rax,%rdi
    16a2:	e8 00 00 00 00       	call   16a7 <encode+0x2e>
    16a7:	c9                   	leave  
    16a8:	c3                   	ret    

00000000000016a9 <decode>:
    16a9:	f3 0f 1e fa          	endbr64 
    16ad:	55                   	push   %rbp
    16ae:	48 89 e5             	mov    %rsp,%rbp
    16b1:	48 83 ec 10          	sub    $0x10,%rsp
    16b5:	89 7d fc             	mov    %edi,-0x4(%rbp)
    16b8:	89 75 f8             	mov    %esi,-0x8(%rbp)
    16bb:	89 55 f4             	mov    %edx,-0xc(%rbp)
    16be:	8b 45 f8             	mov    -0x8(%rbp),%eax
    16c1:	48 63 c8             	movslq %eax,%rcx
    16c4:	8b 45 fc             	mov    -0x4(%rbp),%eax
    16c7:	48 98                	cltq   
    16c9:	8b 55 f4             	mov    -0xc(%rbp),%edx
    16cc:	48 89 ce             	mov    %rcx,%rsi
    16cf:	48 89 c7             	mov    %rax,%rdi
    16d2:	e8 00 00 00 00       	call   16d7 <decode+0x2e>
    16d7:	c9                   	leave  
    16d8:	c3                   	ret    

00000000000016d9 <encodeMessage>:
    16d9:	f3 0f 1e fa          	endbr64 
    16dd:	55                   	push   %rbp
    16de:	48 89 e5             	mov    %rsp,%rbp
    16e1:	53                   	push   %rbx
    16e2:	48 83 ec 48          	sub    $0x48,%rsp
    16e6:	89 7d cc             	mov    %edi,-0x34(%rbp)
    16e9:	89 75 c8             	mov    %esi,-0x38(%rbp)
    16ec:	48 89 55 c0          	mov    %rdx,-0x40(%rbp)
    16f0:	89 4d bc             	mov    %ecx,-0x44(%rbp)
    16f3:	44 89 45 b8          	mov    %r8d,-0x48(%rbp)
    16f7:	8b 45 cc             	mov    -0x34(%rbp),%eax
    16fa:	99                   	cltd   
    16fb:	f7 7d c8             	idivl  -0x38(%rbp)
    16fe:	48 98                	cltq   
    1700:	48 c1 e0 02          	shl    $0x2,%rax
    1704:	48 89 c7             	mov    %rax,%rdi
    1707:	e8 00 00 00 00       	call   170c <encodeMessage+0x33>
    170c:	48 89 45 d8          	mov    %rax,-0x28(%rbp)
    1710:	c7 45 e8 00 00 00 00 	movl   $0x0,-0x18(%rbp)
    1717:	e9 aa 00 00 00       	jmp    17c6 <encodeMessage+0xed>
    171c:	c7 45 ec 00 00 00 00 	movl   $0x0,-0x14(%rbp)
    1723:	c7 45 e4 00 00 00 00 	movl   $0x0,-0x1c(%rbp)
    172a:	eb 2f                	jmp    175b <encodeMessage+0x82>
    172c:	8b 55 e8             	mov    -0x18(%rbp),%edx
    172f:	8b 45 e4             	mov    -0x1c(%rbp),%eax
    1732:	01 d0                	add    %edx,%eax
    1734:	48 63 d0             	movslq %eax,%rdx
    1737:	48 8b 45 c0          	mov    -0x40(%rbp),%rax
    173b:	48 01 d0             	add    %rdx,%rax
    173e:	0f b6 00             	movzbl (%rax),%eax
    1741:	0f be f0             	movsbl %al,%esi
    1744:	8b 55 e4             	mov    -0x1c(%rbp),%edx
    1747:	89 d0                	mov    %edx,%eax
    1749:	c1 e0 03             	shl    $0x3,%eax
    174c:	29 d0                	sub    %edx,%eax
    174e:	89 c1                	mov    %eax,%ecx
    1750:	d3 e6                	shl    %cl,%esi
    1752:	89 f0                	mov    %esi,%eax
    1754:	01 45 ec             	add    %eax,-0x14(%rbp)
    1757:	83 45 e4 01          	addl   $0x1,-0x1c(%rbp)
    175b:	8b 45 e4             	mov    -0x1c(%rbp),%eax
    175e:	3b 45 c8             	cmp    -0x38(%rbp),%eax
    1761:	7c c9                	jl     172c <encodeMessage+0x53>
    1763:	8b 45 e8             	mov    -0x18(%rbp),%eax
    1766:	99                   	cltd   
    1767:	f7 7d c8             	idivl  -0x38(%rbp)
    176a:	48 98                	cltq   
    176c:	48 8d 14 85 00 00 00 	lea    0x0(,%rax,4),%rdx
    1773:	00 
    1774:	48 8b 45 d8          	mov    -0x28(%rbp),%rax
    1778:	48 8d 1c 02          	lea    (%rdx,%rax,1),%rbx
    177c:	8b 55 b8             	mov    -0x48(%rbp),%edx
    177f:	8b 4d bc             	mov    -0x44(%rbp),%ecx
    1782:	8b 45 ec             	mov    -0x14(%rbp),%eax
    1785:	89 ce                	mov    %ecx,%esi
    1787:	89 c7                	mov    %eax,%edi
    1789:	e8 00 00 00 00       	call   178e <encodeMessage+0xb5>
    178e:	89 03                	mov    %eax,(%rbx)
    1790:	8b 45 e8             	mov    -0x18(%rbp),%eax
    1793:	99                   	cltd   
    1794:	f7 7d c8             	idivl  -0x38(%rbp)
    1797:	48 98                	cltq   
    1799:	48 8d 14 85 00 00 00 	lea    0x0(,%rax,4),%rdx
    17a0:	00 
    17a1:	48 8b 45 d8          	mov    -0x28(%rbp),%rax
    17a5:	48 01 d0             	add    %rdx,%rax
    17a8:	8b 00                	mov    (%rax),%eax
    17aa:	89 c6                	mov    %eax,%esi
    17ac:	48 8d 05 00 00 00 00 	lea    0x0(%rip),%rax        # 17b3 <encodeMessage+0xda>
    17b3:	48 89 c7             	mov    %rax,%rdi
    17b6:	b8 00 00 00 00       	mov    $0x0,%eax
    17bb:	e8 00 00 00 00       	call   17c0 <encodeMessage+0xe7>
    17c0:	8b 45 c8             	mov    -0x38(%rbp),%eax
    17c3:	01 45 e8             	add    %eax,-0x18(%rbp)
    17c6:	8b 45 e8             	mov    -0x18(%rbp),%eax
    17c9:	3b 45 cc             	cmp    -0x34(%rbp),%eax
    17cc:	0f 8c 4a ff ff ff    	jl     171c <encodeMessage+0x43>
    17d2:	48 8b 45 d8          	mov    -0x28(%rbp),%rax
    17d6:	48 8b 5d f8          	mov    -0x8(%rbp),%rbx
    17da:	c9                   	leave  
    17db:	c3                   	ret    

00000000000017dc <decodeMessage>:
    17dc:	f3 0f 1e fa          	endbr64 
    17e0:	55                   	push   %rbp
    17e1:	48 89 e5             	mov    %rsp,%rbp
    17e4:	48 83 ec 40          	sub    $0x40,%rsp
    17e8:	89 7d dc             	mov    %edi,-0x24(%rbp)
    17eb:	89 75 d8             	mov    %esi,-0x28(%rbp)
    17ee:	48 89 55 d0          	mov    %rdx,-0x30(%rbp)
    17f2:	89 4d cc             	mov    %ecx,-0x34(%rbp)
    17f5:	44 89 45 c8          	mov    %r8d,-0x38(%rbp)
    17f9:	8b 45 dc             	mov    -0x24(%rbp),%eax
    17fc:	0f af 45 d8          	imul   -0x28(%rbp),%eax
    1800:	48 98                	cltq   
    1802:	48 c1 e0 02          	shl    $0x2,%rax
    1806:	48 89 c7             	mov    %rax,%rdi
    1809:	e8 00 00 00 00       	call   180e <decodeMessage+0x32>
    180e:	48 89 45 f0          	mov    %rax,-0x10(%rbp)
    1812:	c7 45 fc 00 00 00 00 	movl   $0x0,-0x4(%rbp)
    1819:	e9 e8 00 00 00       	jmp    1906 <decodeMessage+0x12a>
    181e:	8b 45 fc             	mov    -0x4(%rbp),%eax
    1821:	48 98                	cltq   
    1823:	48 8d 14 85 00 00 00 	lea    0x0(,%rax,4),%rdx
    182a:	00 
    182b:	48 8b 45 d0          	mov    -0x30(%rbp),%rax
    182f:	48 01 d0             	add    %rdx,%rax
    1832:	8b 00                	mov    (%rax),%eax
    1834:	8b 55 c8             	mov    -0x38(%rbp),%edx
    1837:	8b 4d cc             	mov    -0x34(%rbp),%ecx
    183a:	89 ce                	mov    %ecx,%esi
    183c:	89 c7                	mov    %eax,%edi
    183e:	e8 00 00 00 00       	call   1843 <decodeMessage+0x67>
    1843:	89 45 ec             	mov    %eax,-0x14(%rbp)
    1846:	c7 45 f8 00 00 00 00 	movl   $0x0,-0x8(%rbp)
    184d:	e9 a4 00 00 00       	jmp    18f6 <decodeMessage+0x11a>
    1852:	8b 55 f8             	mov    -0x8(%rbp),%edx
    1855:	89 d0                	mov    %edx,%eax
    1857:	c1 e0 03             	shl    $0x3,%eax
    185a:	29 d0                	sub    %edx,%eax
    185c:	8b 55 ec             	mov    -0x14(%rbp),%edx
    185f:	89 c1                	mov    %eax,%ecx
    1861:	d3 fa                	sar    %cl,%edx
    1863:	89 d0                	mov    %edx,%eax
    1865:	8b 55 fc             	mov    -0x4(%rbp),%edx
    1868:	89 d1                	mov    %edx,%ecx
    186a:	0f af 4d d8          	imul   -0x28(%rbp),%ecx
    186e:	8b 55 f8             	mov    -0x8(%rbp),%edx
    1871:	01 ca                	add    %ecx,%edx
    1873:	48 63 d2             	movslq %edx,%rdx
    1876:	48 8d 0c 95 00 00 00 	lea    0x0(,%rdx,4),%rcx
    187d:	00 
    187e:	48 8b 55 f0          	mov    -0x10(%rbp),%rdx
    1882:	48 01 ca             	add    %rcx,%rdx
    1885:	89 c1                	mov    %eax,%ecx
    1887:	c1 f9 1f             	sar    $0x1f,%ecx
    188a:	c1 e9 19             	shr    $0x19,%ecx
    188d:	01 c8                	add    %ecx,%eax
    188f:	83 e0 7f             	and    $0x7f,%eax
    1892:	29 c8                	sub    %ecx,%eax
    1894:	89 02                	mov    %eax,(%rdx)
    1896:	8b 45 fc             	mov    -0x4(%rbp),%eax
    1899:	0f af 45 d8          	imul   -0x28(%rbp),%eax
    189d:	89 c2                	mov    %eax,%edx
    189f:	8b 45 f8             	mov    -0x8(%rbp),%eax
    18a2:	01 d0                	add    %edx,%eax
    18a4:	48 98                	cltq   
    18a6:	48 8d 14 85 00 00 00 	lea    0x0(,%rax,4),%rdx
    18ad:	00 
    18ae:	48 8b 45 f0          	mov    -0x10(%rbp),%rax
    18b2:	48 01 d0             	add    %rdx,%rax
    18b5:	8b 00                	mov    (%rax),%eax
    18b7:	85 c0                	test   %eax,%eax
    18b9:	74 37                	je     18f2 <decodeMessage+0x116>
    18bb:	8b 45 fc             	mov    -0x4(%rbp),%eax
    18be:	0f af 45 d8          	imul   -0x28(%rbp),%eax
    18c2:	89 c2                	mov    %eax,%edx
    18c4:	8b 45 f8             	mov    -0x8(%rbp),%eax
    18c7:	01 d0                	add    %edx,%eax
    18c9:	48 98                	cltq   
    18cb:	48 8d 14 85 00 00 00 	lea    0x0(,%rax,4),%rdx
    18d2:	00 
    18d3:	48 8b 45 f0          	mov    -0x10(%rbp),%rax
    18d7:	48 01 d0             	add    %rdx,%rax
    18da:	8b 00                	mov    (%rax),%eax
    18dc:	89 c6                	mov    %eax,%esi
    18de:	48 8d 05 00 00 00 00 	lea    0x0(%rip),%rax        # 18e5 <decodeMessage+0x109>
    18e5:	48 89 c7             	mov    %rax,%rdi
    18e8:	b8 00 00 00 00       	mov    $0x0,%eax
    18ed:	e8 00 00 00 00       	call   18f2 <decodeMessage+0x116>
    18f2:	83 45 f8 01          	addl   $0x1,-0x8(%rbp)
    18f6:	8b 45 f8             	mov    -0x8(%rbp),%eax
    18f9:	3b 45 d8             	cmp    -0x28(%rbp),%eax
    18fc:	0f 8c 50 ff ff ff    	jl     1852 <decodeMessage+0x76>
    1902:	83 45 fc 01          	addl   $0x1,-0x4(%rbp)
    1906:	8b 45 fc             	mov    -0x4(%rbp),%eax
    1909:	3b 45 dc             	cmp    -0x24(%rbp),%eax
    190c:	0f 8c 0c ff ff ff    	jl     181e <decodeMessage+0x42>
    1912:	48 8b 45 f0          	mov    -0x10(%rbp),%rax
    1916:	c9                   	leave  
    1917:	c3                   	ret    

0000000000001918 <urdtsc>:
    1918:	f3 0f 1e fa          	endbr64 
    191c:	55                   	push   %rbp
    191d:	48 89 e5             	mov    %rsp,%rbp
    1920:	0f 31                	rdtsc  
    1922:	89 45 fc             	mov    %eax,-0x4(%rbp)
    1925:	89 55 f8             	mov    %edx,-0x8(%rbp)
    1928:	8b 45 f8             	mov    -0x8(%rbp),%eax
    192b:	48 c1 e0 20          	shl    $0x20,%rax
    192f:	48 89 c2             	mov    %rax,%rdx
    1932:	8b 45 fc             	mov    -0x4(%rbp),%eax
    1935:	48 09 d0             	or     %rdx,%rax
    1938:	5d                   	pop    %rbp
    1939:	c3                   	ret    

000000000000193a <aep_cb_func>:
    193a:	f3 0f 1e fa          	endbr64 
    193e:	55                   	push   %rbp
    193f:	48 89 e5             	mov    %rsp,%rbp
    1942:	53                   	push   %rbx
    1943:	48 81 ec c8 00 00 00 	sub    $0xc8,%rsp
    194a:	48 8d 95 30 ff ff ff 	lea    -0xd0(%rbp),%rdx
    1951:	b8 00 00 00 00       	mov    $0x0,%eax
    1956:	b9 17 00 00 00       	mov    $0x17,%ecx
    195b:	48 89 d7             	mov    %rdx,%rdi
    195e:	f3 48 ab             	rep stos %rax,%es:(%rdi)
    1961:	bf 88 00 00 00       	mov    $0x88,%edi
    1966:	e8 00 00 00 00       	call   196b <aep_cb_func+0x31>
    196b:	48 89 c3             	mov    %rax,%rbx
    196e:	e8 00 00 00 00       	call   1973 <aep_cb_func+0x39>
    1973:	48 89 c2             	mov    %rax,%rdx
    1976:	48 89 d8             	mov    %rbx,%rax
    1979:	48 29 d0             	sub    %rdx,%rax
    197c:	48 89 45 e8          	mov    %rax,-0x18(%rbp)
    1980:	48 8b 45 e8          	mov    -0x18(%rbp),%rax
    1984:	48 89 c6             	mov    %rax,%rsi
    1987:	48 8d 05 00 00 00 00 	lea    0x0(%rip),%rax        # 198e <aep_cb_func+0x54>
    198e:	48 89 c7             	mov    %rax,%rdi
    1991:	b8 00 00 00 00       	mov    $0x0,%eax
    1996:	e8 00 00 00 00       	call   199b <aep_cb_func+0x61>
    199b:	48 8b 05 00 00 00 00 	mov    0x0(%rip),%rax        # 19a2 <aep_cb_func+0x68>
    19a2:	48 8b 00             	mov    (%rax),%rax
    19a5:	48 89 c7             	mov    %rax,%rdi
    19a8:	e8 00 00 00 00       	call   19ad <aep_cb_func+0x73>
    19ad:	bf 01 00 00 00       	mov    $0x1,%edi
    19b2:	e8 00 00 00 00       	call   19b7 <aep_cb_func+0x7d>
    19b7:	e8 00 00 00 00       	call   19bc <aep_cb_func+0x82>
    19bc:	48 89 c7             	mov    %rax,%rdi
    19bf:	48 8d 85 30 ff ff ff 	lea    -0xd0(%rbp),%rax
    19c6:	b9 00 00 00 00       	mov    $0x0,%ecx
    19cb:	ba b8 00 00 00       	mov    $0xb8,%edx
    19d0:	48 89 c6             	mov    %rax,%rsi
    19d3:	e8 00 00 00 00       	call   19d8 <aep_cb_func+0x9e>
    19d8:	48 8d 85 30 ff ff ff 	lea    -0xd0(%rbp),%rax
    19df:	48 89 c7             	mov    %rax,%rdi
    19e2:	e8 00 00 00 00       	call   19e7 <aep_cb_func+0xad>
    19e7:	48 8b 05 00 00 00 00 	mov    0x0(%rip),%rax        # 19ee <aep_cb_func+0xb4>
    19ee:	8b 00                	mov    (%rax),%eax
    19f0:	8d 50 01             	lea    0x1(%rax),%edx
    19f3:	48 8b 05 00 00 00 00 	mov    0x0(%rip),%rax        # 19fa <aep_cb_func+0xc0>
    19fa:	89 10                	mov    %edx,(%rax)
    19fc:	90                   	nop
    19fd:	48 8b 5d f8          	mov    -0x8(%rbp),%rbx
    1a01:	c9                   	leave  
    1a02:	c3                   	ret    

0000000000001a03 <print_error_message>:
    1a03:	f3 0f 1e fa          	endbr64 
    1a07:	55                   	push   %rbp
    1a08:	48 89 e5             	mov    %rsp,%rbp
    1a0b:	48 83 ec 20          	sub    $0x20,%rsp
    1a0f:	89 7d ec             	mov    %edi,-0x14(%rbp)
    1a12:	48 c7 45 f8 00 00 00 	movq   $0x0,-0x8(%rbp)
    1a19:	00 
    1a1a:	48 c7 45 f0 0f 00 00 	movq   $0xf,-0x10(%rbp)
    1a21:	00 
    1a22:	48 c7 45 f8 00 00 00 	movq   $0x0,-0x8(%rbp)
    1a29:	00 
    1a2a:	e9 be 00 00 00       	jmp    1aed <print_error_message+0xea>
    1a2f:	48 8b 55 f8          	mov    -0x8(%rbp),%rdx
    1a33:	48 89 d0             	mov    %rdx,%rax
    1a36:	48 01 c0             	add    %rax,%rax
    1a39:	48 01 d0             	add    %rdx,%rax
    1a3c:	48 c1 e0 03          	shl    $0x3,%rax
    1a40:	48 89 c2             	mov    %rax,%rdx
    1a43:	48 8d 05 00 00 00 00 	lea    0x0(%rip),%rax        # 1a4a <print_error_message+0x47>
    1a4a:	8b 04 02             	mov    (%rdx,%rax,1),%eax
    1a4d:	39 45 ec             	cmp    %eax,-0x14(%rbp)
    1a50:	0f 85 92 00 00 00    	jne    1ae8 <print_error_message+0xe5>
    1a56:	48 8b 55 f8          	mov    -0x8(%rbp),%rdx
    1a5a:	48 89 d0             	mov    %rdx,%rax
    1a5d:	48 01 c0             	add    %rax,%rax
    1a60:	48 01 d0             	add    %rdx,%rax
    1a63:	48 c1 e0 03          	shl    $0x3,%rax
    1a67:	48 89 c2             	mov    %rax,%rdx
    1a6a:	48 8d 05 00 00 00 00 	lea    0x0(%rip),%rax        # 1a71 <print_error_message+0x6e>
    1a71:	48 8b 04 02          	mov    (%rdx,%rax,1),%rax
    1a75:	48 85 c0             	test   %rax,%rax
    1a78:	74 36                	je     1ab0 <print_error_message+0xad>
    1a7a:	48 8b 55 f8          	mov    -0x8(%rbp),%rdx
    1a7e:	48 89 d0             	mov    %rdx,%rax
    1a81:	48 01 c0             	add    %rax,%rax
    1a84:	48 01 d0             	add    %rdx,%rax
    1a87:	48 c1 e0 03          	shl    $0x3,%rax
    1a8b:	48 89 c2             	mov    %rax,%rdx
    1a8e:	48 8d 05 00 00 00 00 	lea    0x0(%rip),%rax        # 1a95 <print_error_message+0x92>
    1a95:	48 8b 04 02          	mov    (%rdx,%rax,1),%rax
    1a99:	48 89 c6             	mov    %rax,%rsi
    1a9c:	48 8d 05 00 00 00 00 	lea    0x0(%rip),%rax        # 1aa3 <print_error_message+0xa0>
    1aa3:	48 89 c7             	mov    %rax,%rdi
    1aa6:	b8 00 00 00 00       	mov    $0x0,%eax
    1aab:	e8 00 00 00 00       	call   1ab0 <print_error_message+0xad>
    1ab0:	48 8b 55 f8          	mov    -0x8(%rbp),%rdx
    1ab4:	48 89 d0             	mov    %rdx,%rax
    1ab7:	48 01 c0             	add    %rax,%rax
    1aba:	48 01 d0             	add    %rdx,%rax
    1abd:	48 c1 e0 03          	shl    $0x3,%rax
    1ac1:	48 89 c2             	mov    %rax,%rdx
    1ac4:	48 8d 05 00 00 00 00 	lea    0x0(%rip),%rax        # 1acb <print_error_message+0xc8>
    1acb:	48 8b 04 02          	mov    (%rdx,%rax,1),%rax
    1acf:	48 89 c6             	mov    %rax,%rsi
    1ad2:	48 8d 05 00 00 00 00 	lea    0x0(%rip),%rax        # 1ad9 <print_error_message+0xd6>
    1ad9:	48 89 c7             	mov    %rax,%rdi
    1adc:	b8 00 00 00 00       	mov    $0x0,%eax
    1ae1:	e8 00 00 00 00       	call   1ae6 <print_error_message+0xe3>
    1ae6:	eb 13                	jmp    1afb <print_error_message+0xf8>
    1ae8:	48 83 45 f8 01       	addq   $0x1,-0x8(%rbp)
    1aed:	48 8b 45 f8          	mov    -0x8(%rbp),%rax
    1af1:	48 3b 45 f0          	cmp    -0x10(%rbp),%rax
    1af5:	0f 82 34 ff ff ff    	jb     1a2f <print_error_message+0x2c>
    1afb:	48 8b 45 f8          	mov    -0x8(%rbp),%rax
    1aff:	48 3b 45 f0          	cmp    -0x10(%rbp),%rax
    1b03:	75 19                	jne    1b1e <print_error_message+0x11b>
    1b05:	8b 45 ec             	mov    -0x14(%rbp),%eax
    1b08:	89 c6                	mov    %eax,%esi
    1b0a:	48 8d 05 00 00 00 00 	lea    0x0(%rip),%rax        # 1b11 <print_error_message+0x10e>
    1b11:	48 89 c7             	mov    %rax,%rdi
    1b14:	b8 00 00 00 00       	mov    $0x0,%eax
    1b19:	e8 00 00 00 00       	call   1b1e <print_error_message+0x11b>
    1b1e:	90                   	nop
    1b1f:	c9                   	leave  
    1b20:	c3                   	ret    

0000000000001b21 <initialize_enclave>:
    1b21:	f3 0f 1e fa          	endbr64 
    1b25:	55                   	push   %rbp
    1b26:	48 89 e5             	mov    %rsp,%rbp
    1b29:	48 83 ec 10          	sub    $0x10,%rsp
    1b2d:	c7 45 fc 01 00 00 00 	movl   $0x1,-0x4(%rbp)
    1b34:	41 b9 00 00 00 00    	mov    $0x0,%r9d
    1b3a:	48 8b 05 00 00 00 00 	mov    0x0(%rip),%rax        # 1b41 <initialize_enclave+0x20>
    1b41:	49 89 c0             	mov    %rax,%r8
    1b44:	48 8b 05 00 00 00 00 	mov    0x0(%rip),%rax        # 1b4b <initialize_enclave+0x2a>
    1b4b:	48 89 c1             	mov    %rax,%rcx
    1b4e:	48 8b 05 00 00 00 00 	mov    0x0(%rip),%rax        # 1b55 <initialize_enclave+0x34>
    1b55:	48 89 c2             	mov    %rax,%rdx
    1b58:	be 01 00 00 00       	mov    $0x1,%esi
    1b5d:	48 8d 05 00 00 00 00 	lea    0x0(%rip),%rax        # 1b64 <initialize_enclave+0x43>
    1b64:	48 89 c7             	mov    %rax,%rdi
    1b67:	e8 00 00 00 00       	call   1b6c <initialize_enclave+0x4b>
    1b6c:	89 45 fc             	mov    %eax,-0x4(%rbp)
    1b6f:	83 7d fc 00          	cmpl   $0x0,-0x4(%rbp)
    1b73:	74 11                	je     1b86 <initialize_enclave+0x65>
    1b75:	8b 45 fc             	mov    -0x4(%rbp),%eax
    1b78:	89 c7                	mov    %eax,%edi
    1b7a:	e8 00 00 00 00       	call   1b7f <initialize_enclave+0x5e>
    1b7f:	b8 ff ff ff ff       	mov    $0xffffffff,%eax
    1b84:	eb 19                	jmp    1b9f <initialize_enclave+0x7e>
    1b86:	48 8b 05 00 00 00 00 	mov    0x0(%rip),%rax        # 1b8d <initialize_enclave+0x6c>
    1b8d:	48 89 c7             	mov    %rax,%rdi
    1b90:	e8 00 00 00 00       	call   1b95 <initialize_enclave+0x74>
    1b95:	e8 00 00 00 00       	call   1b9a <initialize_enclave+0x79>
    1b9a:	b8 00 00 00 00       	mov    $0x0,%eax
    1b9f:	c9                   	leave  
    1ba0:	c3                   	ret    

0000000000001ba1 <fault_handler>:
    1ba1:	f3 0f 1e fa          	endbr64 
    1ba5:	55                   	push   %rbp
    1ba6:	48 89 e5             	mov    %rsp,%rbp
    1ba9:	48 83 ec 20          	sub    $0x20,%rsp
    1bad:	89 7d fc             	mov    %edi,-0x4(%rbp)
    1bb0:	48 89 75 f0          	mov    %rsi,-0x10(%rbp)
    1bb4:	48 89 55 e8          	mov    %rdx,-0x18(%rbp)
    1bb8:	48 8b 05 00 00 00 00 	mov    0x0(%rip),%rax        # 1bbf <fault_handler+0x1e>
    1bbf:	8b 00                	mov    (%rax),%eax
    1bc1:	83 f8 04             	cmp    $0x4,%eax
    1bc4:	7e 19                	jle    1bdf <fault_handler+0x3e>
    1bc6:	48 8d 05 00 00 00 00 	lea    0x0(%rip),%rax        # 1bcd <fault_handler+0x2c>
    1bcd:	48 89 c7             	mov    %rax,%rdi
    1bd0:	e8 00 00 00 00       	call   1bd5 <fault_handler+0x34>
    1bd5:	e8 00 00 00 00       	call   1bda <fault_handler+0x39>
    1bda:	e8 00 00 00 00       	call   1bdf <fault_handler+0x3e>
    1bdf:	83 7d fc 0b          	cmpl   $0xb,-0x4(%rbp)
    1be3:	75 4f                	jne    1c34 <fault_handler+0x93>
    1be5:	48 8b 45 f0          	mov    -0x10(%rbp),%rax
    1be9:	48 8b 40 10          	mov    0x10(%rax),%rax
    1bed:	48 89 c6             	mov    %rax,%rsi
    1bf0:	48 8d 05 00 00 00 00 	lea    0x0(%rip),%rax        # 1bf7 <fault_handler+0x56>
    1bf7:	48 89 c7             	mov    %rax,%rdi
    1bfa:	b8 00 00 00 00       	mov    $0x0,%eax
    1bff:	e8 00 00 00 00       	call   1c04 <fault_handler+0x63>
    1c04:	48 8b 05 00 00 00 00 	mov    0x0(%rip),%rax        # 1c0b <fault_handler+0x6a>
    1c0b:	48 8b 00             	mov    (%rax),%rax
    1c0e:	48 89 c7             	mov    %rax,%rdi
    1c11:	e8 00 00 00 00       	call   1c16 <fault_handler+0x75>
    1c16:	90                   	nop
    1c17:	48 8b 45 f0          	mov    -0x10(%rbp),%rax
    1c1b:	48 8b 50 10          	mov    0x10(%rax),%rdx
    1c1f:	48 8b 05 00 00 00 00 	mov    0x0(%rip),%rax        # 1c26 <fault_handler+0x85>
    1c26:	48 8b 00             	mov    (%rax),%rax
    1c29:	48 39 c2             	cmp    %rax,%rdx
    1c2c:	0f 85 a8 00 00 00    	jne    1cda <fault_handler+0x139>
    1c32:	eb 30                	jmp    1c64 <fault_handler+0xc3>
    1c34:	8b 45 fc             	mov    -0x4(%rbp),%eax
    1c37:	89 c6                	mov    %eax,%esi
    1c39:	48 8d 05 00 00 00 00 	lea    0x0(%rip),%rax        # 1c40 <fault_handler+0x9f>
    1c40:	48 89 c7             	mov    %rax,%rdi
    1c43:	b8 00 00 00 00       	mov    $0x0,%eax
    1c48:	e8 00 00 00 00       	call   1c4d <fault_handler+0xac>
    1c4d:	48 8b 05 00 00 00 00 	mov    0x0(%rip),%rax        # 1c54 <fault_handler+0xb3>
    1c54:	48 8b 00             	mov    (%rax),%rax
    1c57:	48 89 c7             	mov    %rax,%rdi
    1c5a:	e8 00 00 00 00       	call   1c5f <fault_handler+0xbe>
    1c5f:	e8 00 00 00 00       	call   1c64 <fault_handler+0xc3>
    1c64:	48 8d 05 00 00 00 00 	lea    0x0(%rip),%rax        # 1c6b <fault_handler+0xca>
    1c6b:	48 89 c7             	mov    %rax,%rdi
    1c6e:	b8 00 00 00 00       	mov    $0x0,%eax
    1c73:	e8 00 00 00 00       	call   1c78 <fault_handler+0xd7>
    1c78:	48 8b 05 00 00 00 00 	mov    0x0(%rip),%rax        # 1c7f <fault_handler+0xde>
    1c7f:	48 8b 00             	mov    (%rax),%rax
    1c82:	48 89 c7             	mov    %rax,%rdi
    1c85:	e8 00 00 00 00       	call   1c8a <fault_handler+0xe9>
    1c8a:	48 8b 05 00 00 00 00 	mov    0x0(%rip),%rax        # 1c91 <fault_handler+0xf0>
    1c91:	48 8b 00             	mov    (%rax),%rax
    1c94:	ba 03 00 00 00       	mov    $0x3,%edx
    1c99:	be 00 10 00 00       	mov    $0x1000,%esi
    1c9e:	48 89 c7             	mov    %rax,%rdi
    1ca1:	e8 00 00 00 00       	call   1ca6 <fault_handler+0x105>
    1ca6:	85 c0                	test   %eax,%eax
    1ca8:	74 19                	je     1cc3 <fault_handler+0x122>
    1caa:	48 8d 05 00 00 00 00 	lea    0x0(%rip),%rax        # 1cb1 <fault_handler+0x110>
    1cb1:	48 89 c7             	mov    %rax,%rdi
    1cb4:	e8 00 00 00 00       	call   1cb9 <fault_handler+0x118>
    1cb9:	e8 00 00 00 00       	call   1cbe <fault_handler+0x11d>
    1cbe:	e8 00 00 00 00       	call   1cc3 <fault_handler+0x122>
    1cc3:	48 8b 05 00 00 00 00 	mov    0x0(%rip),%rax        # 1cca <fault_handler+0x129>
    1cca:	48 8b 00             	mov    (%rax),%rax
    1ccd:	48 89 c7             	mov    %rax,%rdi
    1cd0:	e8 00 00 00 00       	call   1cd5 <fault_handler+0x134>
    1cd5:	e9 b0 00 00 00       	jmp    1d8a <fault_handler+0x1e9>
    1cda:	48 8b 45 f0          	mov    -0x10(%rbp),%rax
    1cde:	48 8b 50 10          	mov    0x10(%rax),%rdx
    1ce2:	48 8b 05 00 00 00 00 	mov    0x0(%rip),%rax        # 1ce9 <fault_handler+0x148>
    1ce9:	48 8b 00             	mov    (%rax),%rax
    1cec:	48 39 c2             	cmp    %rax,%rdx
    1cef:	75 73                	jne    1d64 <fault_handler+0x1c3>
    1cf1:	48 8d 05 00 00 00 00 	lea    0x0(%rip),%rax        # 1cf8 <fault_handler+0x157>
    1cf8:	48 89 c7             	mov    %rax,%rdi
    1cfb:	b8 00 00 00 00       	mov    $0x0,%eax
    1d00:	e8 00 00 00 00       	call   1d05 <fault_handler+0x164>
    1d05:	48 8b 05 00 00 00 00 	mov    0x0(%rip),%rax        # 1d0c <fault_handler+0x16b>
    1d0c:	48 8b 00             	mov    (%rax),%rax
    1d0f:	48 89 c7             	mov    %rax,%rdi
    1d12:	e8 00 00 00 00       	call   1d17 <fault_handler+0x176>
    1d17:	48 8b 05 00 00 00 00 	mov    0x0(%rip),%rax        # 1d1e <fault_handler+0x17d>
    1d1e:	48 8b 00             	mov    (%rax),%rax
    1d21:	ba 05 00 00 00       	mov    $0x5,%edx
    1d26:	be 00 10 00 00       	mov    $0x1000,%esi
    1d2b:	48 89 c7             	mov    %rax,%rdi
    1d2e:	e8 00 00 00 00       	call   1d33 <fault_handler+0x192>
    1d33:	85 c0                	test   %eax,%eax
    1d35:	74 19                	je     1d50 <fault_handler+0x1af>
    1d37:	48 8d 05 00 00 00 00 	lea    0x0(%rip),%rax        # 1d3e <fault_handler+0x19d>
    1d3e:	48 89 c7             	mov    %rax,%rdi
    1d41:	e8 00 00 00 00       	call   1d46 <fault_handler+0x1a5>
    1d46:	e8 00 00 00 00       	call   1d4b <fault_handler+0x1aa>
    1d4b:	e8 00 00 00 00       	call   1d50 <fault_handler+0x1af>
    1d50:	48 8b 05 00 00 00 00 	mov    0x0(%rip),%rax        # 1d57 <fault_handler+0x1b6>
    1d57:	48 8b 00             	mov    (%rax),%rax
    1d5a:	48 89 c7             	mov    %rax,%rdi
    1d5d:	e8 00 00 00 00       	call   1d62 <fault_handler+0x1c1>
    1d62:	eb 26                	jmp    1d8a <fault_handler+0x1e9>
    1d64:	48 8d 05 00 00 00 00 	lea    0x0(%rip),%rax        # 1d6b <fault_handler+0x1ca>
    1d6b:	48 89 c7             	mov    %rax,%rdi
    1d6e:	b8 00 00 00 00       	mov    $0x0,%eax
    1d73:	e8 00 00 00 00       	call   1d78 <fault_handler+0x1d7>
    1d78:	48 8b 05 00 00 00 00 	mov    0x0(%rip),%rax        # 1d7f <fault_handler+0x1de>
    1d7f:	48 8b 00             	mov    (%rax),%rax
    1d82:	48 89 c7             	mov    %rax,%rdi
    1d85:	e8 00 00 00 00       	call   1d8a <fault_handler+0x1e9>
    1d8a:	48 8b 05 00 00 00 00 	mov    0x0(%rip),%rax        # 1d91 <fault_handler+0x1f0>
    1d91:	8b 00                	mov    (%rax),%eax
    1d93:	8d 50 01             	lea    0x1(%rax),%edx
    1d96:	48 8b 05 00 00 00 00 	mov    0x0(%rip),%rax        # 1d9d <fault_handler+0x1fc>
    1d9d:	89 10                	mov    %edx,(%rax)
    1d9f:	90                   	nop
    1da0:	c9                   	leave  
    1da1:	c3                   	ret    

0000000000001da2 <attacker_config_page_table>:
    1da2:	f3 0f 1e fa          	endbr64 
    1da6:	55                   	push   %rbp
    1da7:	48 89 e5             	mov    %rsp,%rbp
    1daa:	48 81 ec 40 01 00 00 	sub    $0x140,%rsp
    1db1:	48 8d 05 00 00 00 00 	lea    0x0(%rip),%rax        # 1db8 <attacker_config_page_table+0x16>
    1db8:	48 89 c7             	mov    %rax,%rdi
    1dbb:	b8 00 00 00 00       	mov    $0x0,%eax
    1dc0:	e8 00 00 00 00       	call   1dc5 <attacker_config_page_table+0x23>
    1dc5:	48 8b 05 00 00 00 00 	mov    0x0(%rip),%rax        # 1dcc <attacker_config_page_table+0x2a>
    1dcc:	48 8b 00             	mov    (%rax),%rax
    1dcf:	48 89 c7             	mov    %rax,%rdi
    1dd2:	e8 00 00 00 00       	call   1dd7 <attacker_config_page_table+0x35>
    1dd7:	48 8b 05 00 00 00 00 	mov    0x0(%rip),%rax        # 1dde <attacker_config_page_table+0x3c>
    1dde:	48 8b 00             	mov    (%rax),%rax
    1de1:	48 8b 15 00 00 00 00 	mov    0x0(%rip),%rdx        # 1de8 <attacker_config_page_table+0x46>
    1de8:	48 89 d6             	mov    %rdx,%rsi
    1deb:	48 89 c7             	mov    %rax,%rdi
    1dee:	e8 00 00 00 00       	call   1df3 <attacker_config_page_table+0x51>
    1df3:	89 c2                	mov    %eax,%edx
    1df5:	48 8b 05 00 00 00 00 	mov    0x0(%rip),%rax        # 1dfc <attacker_config_page_table+0x5a>
    1dfc:	89 10                	mov    %edx,(%rax)
    1dfe:	48 8b 05 00 00 00 00 	mov    0x0(%rip),%rax        # 1e05 <attacker_config_page_table+0x63>
    1e05:	8b 00                	mov    (%rax),%eax
    1e07:	85 c0                	test   %eax,%eax
    1e09:	74 33                	je     1e3e <attacker_config_page_table+0x9c>
    1e0b:	48 8b 05 00 00 00 00 	mov    0x0(%rip),%rax        # 1e12 <attacker_config_page_table+0x70>
    1e12:	8b 00                	mov    (%rax),%eax
    1e14:	89 c1                	mov    %eax,%ecx
    1e16:	ba 27 01 00 00       	mov    $0x127,%edx
    1e1b:	48 8d 05 00 00 00 00 	lea    0x0(%rip),%rax        # 1e22 <attacker_config_page_table+0x80>
    1e22:	48 89 c6             	mov    %rax,%rsi
    1e25:	48 8d 05 00 00 00 00 	lea    0x0(%rip),%rax        # 1e2c <attacker_config_page_table+0x8a>
    1e2c:	48 89 c7             	mov    %rax,%rdi
    1e2f:	b8 00 00 00 00       	mov    $0x0,%eax
    1e34:	e8 00 00 00 00       	call   1e39 <attacker_config_page_table+0x97>
    1e39:	e8 00 00 00 00       	call   1e3e <attacker_config_page_table+0x9c>
    1e3e:	48 8b 05 00 00 00 00 	mov    0x0(%rip),%rax        # 1e45 <attacker_config_page_table+0xa3>
    1e45:	48 8b 00             	mov    (%rax),%rax
    1e48:	48 25 00 f0 ff ff    	and    $0xfffffffffffff000,%rax
    1e4e:	48 89 c2             	mov    %rax,%rdx
    1e51:	48 8b 05 00 00 00 00 	mov    0x0(%rip),%rax        # 1e58 <attacker_config_page_table+0xb6>
    1e58:	48 89 10             	mov    %rdx,(%rax)
    1e5b:	48 8b 05 00 00 00 00 	mov    0x0(%rip),%rax        # 1e62 <attacker_config_page_table+0xc0>
    1e62:	48 8b 00             	mov    (%rax),%rax
    1e65:	48 89 c6             	mov    %rax,%rsi
    1e68:	48 8d 05 00 00 00 00 	lea    0x0(%rip),%rax        # 1e6f <attacker_config_page_table+0xcd>
    1e6f:	48 89 c7             	mov    %rax,%rdi
    1e72:	b8 00 00 00 00       	mov    $0x0,%eax
    1e77:	e8 00 00 00 00       	call   1e7c <attacker_config_page_table+0xda>
    1e7c:	48 8b 05 00 00 00 00 	mov    0x0(%rip),%rax        # 1e83 <attacker_config_page_table+0xe1>
    1e83:	48 8b 00             	mov    (%rax),%rax
    1e86:	48 89 c7             	mov    %rax,%rdi
    1e89:	e8 00 00 00 00       	call   1e8e <attacker_config_page_table+0xec>
    1e8e:	48 8b 05 00 00 00 00 	mov    0x0(%rip),%rax        # 1e95 <attacker_config_page_table+0xf3>
    1e95:	48 8b 00             	mov    (%rax),%rax
    1e98:	48 89 c7             	mov    %rax,%rdi
    1e9b:	e8 00 00 00 00       	call   1ea0 <attacker_config_page_table+0xfe>
    1ea0:	48 8b 05 00 00 00 00 	mov    0x0(%rip),%rax        # 1ea7 <attacker_config_page_table+0x105>
    1ea7:	48 8b 00             	mov    (%rax),%rax
    1eaa:	ba 00 00 00 00       	mov    $0x0,%edx
    1eaf:	be 00 10 00 00       	mov    $0x1000,%esi
    1eb4:	48 89 c7             	mov    %rax,%rdi
    1eb7:	e8 00 00 00 00       	call   1ebc <attacker_config_page_table+0x11a>
    1ebc:	85 c0                	test   %eax,%eax
    1ebe:	74 19                	je     1ed9 <attacker_config_page_table+0x137>
    1ec0:	48 8d 05 00 00 00 00 	lea    0x0(%rip),%rax        # 1ec7 <attacker_config_page_table+0x125>
    1ec7:	48 89 c7             	mov    %rax,%rdi
    1eca:	e8 00 00 00 00       	call   1ecf <attacker_config_page_table+0x12d>
    1ecf:	e8 00 00 00 00       	call   1ed4 <attacker_config_page_table+0x132>
    1ed4:	e8 00 00 00 00       	call   1ed9 <attacker_config_page_table+0x137>
    1ed9:	48 8b 05 00 00 00 00 	mov    0x0(%rip),%rax        # 1ee0 <attacker_config_page_table+0x13e>
    1ee0:	48 8b 00             	mov    (%rax),%rax
    1ee3:	48 89 c7             	mov    %rax,%rdi
    1ee6:	e8 00 00 00 00       	call   1eeb <attacker_config_page_table+0x149>
    1eeb:	48 8d 05 00 00 00 00 	lea    0x0(%rip),%rax        # 1ef2 <attacker_config_page_table+0x150>
    1ef2:	48 89 c7             	mov    %rax,%rdi
    1ef5:	b8 00 00 00 00       	mov    $0x0,%eax
    1efa:	e8 00 00 00 00       	call   1eff <attacker_config_page_table+0x15d>
    1eff:	48 8b 05 00 00 00 00 	mov    0x0(%rip),%rax        # 1f06 <attacker_config_page_table+0x164>
    1f06:	48 8b 00             	mov    (%rax),%rax
    1f09:	48 89 c7             	mov    %rax,%rdi
    1f0c:	e8 00 00 00 00       	call   1f11 <attacker_config_page_table+0x16f>
    1f11:	48 8b 05 00 00 00 00 	mov    0x0(%rip),%rax        # 1f18 <attacker_config_page_table+0x176>
    1f18:	48 8b 00             	mov    (%rax),%rax
    1f1b:	48 8b 15 00 00 00 00 	mov    0x0(%rip),%rdx        # 1f22 <attacker_config_page_table+0x180>
    1f22:	48 89 d6             	mov    %rdx,%rsi
    1f25:	48 89 c7             	mov    %rax,%rdi
    1f28:	e8 00 00 00 00       	call   1f2d <attacker_config_page_table+0x18b>
    1f2d:	89 c2                	mov    %eax,%edx
    1f2f:	48 8b 05 00 00 00 00 	mov    0x0(%rip),%rax        # 1f36 <attacker_config_page_table+0x194>
    1f36:	89 10                	mov    %edx,(%rax)
    1f38:	48 8b 05 00 00 00 00 	mov    0x0(%rip),%rax        # 1f3f <attacker_config_page_table+0x19d>
    1f3f:	8b 00                	mov    (%rax),%eax
    1f41:	85 c0                	test   %eax,%eax
    1f43:	74 33                	je     1f78 <attacker_config_page_table+0x1d6>
    1f45:	48 8b 05 00 00 00 00 	mov    0x0(%rip),%rax        # 1f4c <attacker_config_page_table+0x1aa>
    1f4c:	8b 00                	mov    (%rax),%eax
    1f4e:	89 c1                	mov    %eax,%ecx
    1f50:	ba 2f 01 00 00       	mov    $0x12f,%edx
    1f55:	48 8d 05 00 00 00 00 	lea    0x0(%rip),%rax        # 1f5c <attacker_config_page_table+0x1ba>
    1f5c:	48 89 c6             	mov    %rax,%rsi
    1f5f:	48 8d 05 00 00 00 00 	lea    0x0(%rip),%rax        # 1f66 <attacker_config_page_table+0x1c4>
    1f66:	48 89 c7             	mov    %rax,%rdi
    1f69:	b8 00 00 00 00       	mov    $0x0,%eax
    1f6e:	e8 00 00 00 00       	call   1f73 <attacker_config_page_table+0x1d1>
    1f73:	e8 00 00 00 00       	call   1f78 <attacker_config_page_table+0x1d6>
    1f78:	48 8b 05 00 00 00 00 	mov    0x0(%rip),%rax        # 1f7f <attacker_config_page_table+0x1dd>
    1f7f:	48 8b 00             	mov    (%rax),%rax
    1f82:	48 89 c6             	mov    %rax,%rsi
    1f85:	48 8d 05 00 00 00 00 	lea    0x0(%rip),%rax        # 1f8c <attacker_config_page_table+0x1ea>
    1f8c:	48 89 c7             	mov    %rax,%rdi
    1f8f:	b8 00 00 00 00       	mov    $0x0,%eax
    1f94:	e8 00 00 00 00       	call   1f99 <attacker_config_page_table+0x1f7>
    1f99:	48 8b 05 00 00 00 00 	mov    0x0(%rip),%rax        # 1fa0 <attacker_config_page_table+0x1fe>
    1fa0:	48 8b 00             	mov    (%rax),%rax
    1fa3:	48 89 c7             	mov    %rax,%rdi
    1fa6:	e8 00 00 00 00       	call   1fab <attacker_config_page_table+0x209>
    1fab:	48 8b 05 00 00 00 00 	mov    0x0(%rip),%rax        # 1fb2 <attacker_config_page_table+0x210>
    1fb2:	48 8b 00             	mov    (%rax),%rax
    1fb5:	48 89 c7             	mov    %rax,%rdi
    1fb8:	e8 00 00 00 00       	call   1fbd <attacker_config_page_table+0x21b>
    1fbd:	48 8b 05 00 00 00 00 	mov    0x0(%rip),%rax        # 1fc4 <attacker_config_page_table+0x222>
    1fc4:	48 8b 00             	mov    (%rax),%rax
    1fc7:	ba 00 00 00 00       	mov    $0x0,%edx
    1fcc:	be 00 10 00 00       	mov    $0x1000,%esi
    1fd1:	48 89 c7             	mov    %rax,%rdi
    1fd4:	e8 00 00 00 00       	call   1fd9 <attacker_config_page_table+0x237>
    1fd9:	85 c0                	test   %eax,%eax
    1fdb:	74 19                	je     1ff6 <attacker_config_page_table+0x254>
    1fdd:	48 8d 05 00 00 00 00 	lea    0x0(%rip),%rax        # 1fe4 <attacker_config_page_table+0x242>
    1fe4:	48 89 c7             	mov    %rax,%rdi
    1fe7:	e8 00 00 00 00       	call   1fec <attacker_config_page_table+0x24a>
    1fec:	e8 00 00 00 00       	call   1ff1 <attacker_config_page_table+0x24f>
    1ff1:	e8 00 00 00 00       	call   1ff6 <attacker_config_page_table+0x254>
    1ff6:	48 8b 05 00 00 00 00 	mov    0x0(%rip),%rax        # 1ffd <attacker_config_page_table+0x25b>
    1ffd:	48 8b 00             	mov    (%rax),%rax
    2000:	48 89 c7             	mov    %rax,%rdi
    2003:	e8 00 00 00 00       	call   2008 <attacker_config_page_table+0x266>
    2008:	48 8d 85 60 ff ff ff 	lea    -0xa0(%rbp),%rax
    200f:	ba 00 00 00 00       	mov    $0x0,%edx
    2014:	be 01 00 00 00       	mov    $0x1,%esi
    2019:	48 89 c7             	mov    %rax,%rdi
    201c:	e8 00 00 00 00       	call   2021 <attacker_config_page_table+0x27f>
    2021:	48 8b 05 00 00 00 00 	mov    0x0(%rip),%rax        # 2028 <attacker_config_page_table+0x286>
    2028:	48 89 85 60 ff ff ff 	mov    %rax,-0xa0(%rbp)
    202f:	c7 45 e8 04 00 00 10 	movl   $0x10000004,-0x18(%rbp)
    2036:	48 8d 85 60 ff ff ff 	lea    -0xa0(%rbp),%rax
    203d:	48 83 c0 08          	add    $0x8,%rax
    2041:	48 89 c7             	mov    %rax,%rdi
    2044:	e8 00 00 00 00       	call   2049 <attacker_config_page_table+0x2a7>
    2049:	48 8d 95 c0 fe ff ff 	lea    -0x140(%rbp),%rdx
    2050:	48 8d 85 60 ff ff ff 	lea    -0xa0(%rbp),%rax
    2057:	48 89 c6             	mov    %rax,%rsi
    205a:	bf 0b 00 00 00       	mov    $0xb,%edi
    205f:	e8 00 00 00 00       	call   2064 <attacker_config_page_table+0x2c2>
    2064:	85 c0                	test   %eax,%eax
    2066:	74 19                	je     2081 <attacker_config_page_table+0x2df>
    2068:	48 8d 05 00 00 00 00 	lea    0x0(%rip),%rax        # 206f <attacker_config_page_table+0x2cd>
    206f:	48 89 c7             	mov    %rax,%rdi
    2072:	e8 00 00 00 00       	call   2077 <attacker_config_page_table+0x2d5>
    2077:	e8 00 00 00 00       	call   207c <attacker_config_page_table+0x2da>
    207c:	e8 00 00 00 00       	call   2081 <attacker_config_page_table+0x2df>
    2081:	90                   	nop
    2082:	c9                   	leave  
    2083:	c3                   	ret    

0000000000002084 <test_attestation>:
    2084:	f3 0f 1e fa          	endbr64 
    2088:	55                   	push   %rbp
    2089:	48 89 e5             	mov    %rsp,%rbp
    208c:	48 81 ec b0 03 00 00 	sub    $0x3b0,%rsp
    2093:	89 bd 5c fc ff ff    	mov    %edi,-0x3a4(%rbp)
    2099:	e8 00 00 00 00       	call   209e <test_attestation+0x1a>
    209e:	48 89 45 e0          	mov    %rax,-0x20(%rbp)
    20a2:	e8 00 00 00 00       	call   20a7 <test_attestation+0x23>
    20a7:	89 45 dc             	mov    %eax,-0x24(%rbp)
    20aa:	8b 45 dc             	mov    -0x24(%rbp),%eax
    20ad:	8d 50 07             	lea    0x7(%rax),%edx
    20b0:	85 c0                	test   %eax,%eax
    20b2:	0f 48 c2             	cmovs  %edx,%eax
    20b5:	c1 f8 03             	sar    $0x3,%eax
    20b8:	48 98                	cltq   
    20ba:	48 8d 14 c5 00 00 00 	lea    0x0(,%rax,8),%rdx
    20c1:	00 
    20c2:	48 8b 45 e0          	mov    -0x20(%rbp),%rax
    20c6:	48 01 d0             	add    %rdx,%rax
    20c9:	48 89 45 d0          	mov    %rax,-0x30(%rbp)
    20cd:	e8 00 00 00 00       	call   20d2 <test_attestation+0x4e>
    20d2:	48 89 45 90          	mov    %rax,-0x70(%rbp)
    20d6:	e8 00 00 00 00       	call   20db <test_attestation+0x57>
    20db:	48 89 45 c8          	mov    %rax,-0x38(%rbp)
    20df:	48 8b 45 c8          	mov    -0x38(%rbp),%rax
    20e3:	48 83 c0 10          	add    $0x10,%rax
    20e7:	48 8b 08             	mov    (%rax),%rcx
    20ea:	48 8b 45 c8          	mov    -0x38(%rbp),%rax
    20ee:	48 83 c0 08          	add    $0x8,%rax
    20f2:	48 8b 10             	mov    (%rax),%rdx
    20f5:	48 8b 45 c8          	mov    -0x38(%rbp),%rax
    20f9:	48 8b 00             	mov    (%rax),%rax
    20fc:	48 89 c6             	mov    %rax,%rsi
    20ff:	48 8d 05 00 00 00 00 	lea    0x0(%rip),%rax        # 2106 <test_attestation+0x82>
    2106:	48 89 c7             	mov    %rax,%rdi
    2109:	b8 00 00 00 00       	mov    $0x0,%eax
    210e:	e8 00 00 00 00       	call   2113 <test_attestation+0x8f>
    2113:	48 8b 45 c8          	mov    -0x38(%rbp),%rax
    2117:	48 89 c6             	mov    %rax,%rsi
    211a:	48 8d 05 00 00 00 00 	lea    0x0(%rip),%rax        # 2121 <test_attestation+0x9d>
    2121:	48 89 c7             	mov    %rax,%rdi
    2124:	b8 00 00 00 00       	mov    $0x0,%eax
    2129:	e8 00 00 00 00       	call   212e <test_attestation+0xaa>
    212e:	48 8b 45 c8          	mov    -0x38(%rbp),%rax
    2132:	48 89 c6             	mov    %rax,%rsi
    2135:	48 8d 05 00 00 00 00 	lea    0x0(%rip),%rax        # 213c <test_attestation+0xb8>
    213c:	48 89 c7             	mov    %rax,%rdi
    213f:	b8 00 00 00 00       	mov    $0x0,%eax
    2144:	e8 00 00 00 00       	call   2149 <test_attestation+0xc5>
    2149:	ba 00 00 08 00       	mov    $0x80000,%edx
    214e:	be 00 00 00 00       	mov    $0x0,%esi
    2153:	48 8b 05 00 00 00 00 	mov    0x0(%rip),%rax        # 215a <test_attestation+0xd6>
    215a:	48 89 c7             	mov    %rax,%rdi
    215d:	e8 00 00 00 00       	call   2162 <test_attestation+0xde>
    2162:	ba 30 00 00 00       	mov    $0x30,%edx
    2167:	be 00 00 00 00       	mov    $0x0,%esi
    216c:	48 8b 05 00 00 00 00 	mov    0x0(%rip),%rax        # 2173 <test_attestation+0xef>
    2173:	48 89 c7             	mov    %rax,%rdi
    2176:	e8 00 00 00 00       	call   217b <test_attestation+0xf7>
    217b:	8b 85 5c fc ff ff    	mov    -0x3a4(%rbp),%eax
    2181:	48 63 d0             	movslq %eax,%rdx
    2184:	48 8b 05 00 00 00 00 	mov    0x0(%rip),%rax        # 218b <test_attestation+0x107>
    218b:	48 89 10             	mov    %rdx,(%rax)
    218e:	48 8b 05 00 00 00 00 	mov    0x0(%rip),%rax        # 2195 <test_attestation+0x111>
    2195:	48 89 c2             	mov    %rax,%rdx
    2198:	48 8b 05 00 00 00 00 	mov    0x0(%rip),%rax        # 219f <test_attestation+0x11b>
    219f:	48 89 50 08          	mov    %rdx,0x8(%rax)
    21a3:	48 8d 55 90          	lea    -0x70(%rbp),%rdx
    21a7:	48 8b 05 00 00 00 00 	mov    0x0(%rip),%rax        # 21ae <test_attestation+0x12a>
    21ae:	48 89 50 10          	mov    %rdx,0x10(%rax)
    21b2:	48 8b 05 00 00 00 00 	mov    0x0(%rip),%rax        # 21b9 <test_attestation+0x135>
    21b9:	48 c7 40 18 1e 00 00 	movq   $0x1e,0x18(%rax)
    21c0:	00 
    21c1:	48 8d 55 90          	lea    -0x70(%rbp),%rdx
    21c5:	48 8b 05 00 00 00 00 	mov    0x0(%rip),%rax        # 21cc <test_attestation+0x148>
    21cc:	48 89 50 20          	mov    %rdx,0x20(%rax)
    21d0:	48 8b 05 00 00 00 00 	mov    0x0(%rip),%rax        # 21d7 <test_attestation+0x153>
    21d7:	48 c7 40 28 28 00 00 	movq   $0x28,0x28(%rax)
    21de:	00 
    21df:	48 8b 45 c8          	mov    -0x38(%rbp),%rax
    21e3:	48 8b 15 00 00 00 00 	mov    0x0(%rip),%rdx        # 21ea <test_attestation+0x166>
    21ea:	48 89 d1             	mov    %rdx,%rcx
    21ed:	48 8b 15 00 00 00 00 	mov    0x0(%rip),%rdx        # 21f4 <test_attestation+0x170>
    21f4:	48 89 c6             	mov    %rax,%rsi
    21f7:	48 8d 05 00 00 00 00 	lea    0x0(%rip),%rax        # 21fe <test_attestation+0x17a>
    21fe:	48 89 c7             	mov    %rax,%rdi
    2201:	b8 00 00 00 00       	mov    $0x0,%eax
    2206:	e8 00 00 00 00       	call   220b <test_attestation+0x187>
    220b:	48 8d 05 00 00 00 00 	lea    0x0(%rip),%rax        # 2212 <test_attestation+0x18e>
    2212:	48 89 c7             	mov    %rax,%rdi
    2215:	b8 00 00 00 00       	mov    $0x0,%eax
    221a:	e8 00 00 00 00       	call   221f <test_attestation+0x19b>
    221f:	ba 00 00 08 00       	mov    $0x80000,%edx
    2224:	be 00 00 00 00       	mov    $0x0,%esi
    2229:	48 8b 05 00 00 00 00 	mov    0x0(%rip),%rax        # 2230 <test_attestation+0x1ac>
    2230:	48 89 c7             	mov    %rax,%rdi
    2233:	e8 00 00 00 00       	call   2238 <test_attestation+0x1b4>
    2238:	c7 45 c4 01 00 00 00 	movl   $0x1,-0x3c(%rbp)
    223f:	c7 45 c4 00 00 00 00 	movl   $0x0,-0x3c(%rbp)
    2246:	48 c7 45 b8 0c 00 00 	movq   $0xc,-0x48(%rbp)
    224d:	00 
    224e:	48 c7 45 b0 0d 00 00 	movq   $0xd,-0x50(%rbp)
    2255:	00 
    2256:	48 c7 45 80 00 00 00 	movq   $0x0,-0x80(%rbp)
    225d:	00 
    225e:	48 c7 45 88 00 00 00 	movq   $0x0,-0x78(%rbp)
    2265:	00 
    2266:	48 8b 05 00 00 00 00 	mov    0x0(%rip),%rax        # 226d <test_attestation+0x1e9>
    226d:	48 89 45 80          	mov    %rax,-0x80(%rbp)
    2271:	48 8d 95 60 fc ff ff 	lea    -0x3a0(%rbp),%rdx
    2278:	b8 00 00 00 00       	mov    $0x0,%eax
    227d:	b9 64 00 00 00       	mov    $0x64,%ecx
    2282:	48 89 d7             	mov    %rdx,%rdi
    2285:	f3 48 ab             	rep stos %rax,%es:(%rdi)
    2288:	48 c7 85 60 fc ff ff 	movq   $0x200,-0x3a0(%rbp)
    228f:	00 02 00 00 
    2293:	c7 45 f8 00 00 00 00 	movl   $0x0,-0x8(%rbp)
    229a:	c7 45 f4 00 00 00 00 	movl   $0x0,-0xc(%rbp)
    22a1:	c7 45 f0 00 00 00 00 	movl   $0x0,-0x10(%rbp)
    22a8:	c7 45 fc 00 00 00 00 	movl   $0x0,-0x4(%rbp)
    22af:	e9 cd 02 00 00       	jmp    2581 <test_attestation+0x4fd>
    22b4:	48 c7 45 a8 00 00 00 	movq   $0x0,-0x58(%rbp)
    22bb:	00 
    22bc:	e8 00 00 00 00       	call   22c1 <test_attestation+0x23d>
    22c1:	48 89 45 a0          	mov    %rax,-0x60(%rbp)
    22c5:	e8 00 00 00 00       	call   22ca <test_attestation+0x246>
    22ca:	48 89 45 98          	mov    %rax,-0x68(%rbp)
    22ce:	48 c7 45 a0 00 00 00 	movq   $0x0,-0x60(%rbp)
    22d5:	00 
    22d6:	48 c7 45 98 00 00 00 	movq   $0x0,-0x68(%rbp)
    22dd:	00 
    22de:	48 c7 05 00 00 00 00 	movq   $0x0,0x0(%rip)        # 22e9 <test_attestation+0x265>
    22e5:	00 00 00 00 
    22e9:	e8 00 00 00 00       	call   22ee <test_attestation+0x26a>
    22ee:	48 89 45 a0          	mov    %rax,-0x60(%rbp)
    22f2:	48 8b 95 60 fc ff ff 	mov    -0x3a0(%rbp),%rdx
    22f9:	48 8d 8d 60 fc ff ff 	lea    -0x3a0(%rbp),%rcx
    2300:	48 8b 45 c8          	mov    -0x38(%rbp),%rax
    2304:	49 89 c9             	mov    %rcx,%r9
    2307:	49 89 d0             	mov    %rdx,%r8
    230a:	48 8b 15 00 00 00 00 	mov    0x0(%rip),%rdx        # 2311 <test_attestation+0x28d>
    2311:	48 89 d1             	mov    %rdx,%rcx
    2314:	ba 00 00 00 00       	mov    $0x0,%edx
    2319:	be 01 00 00 00       	mov    $0x1,%esi
    231e:	48 89 c7             	mov    %rax,%rdi
    2321:	e8 00 00 00 00       	call   2326 <test_attestation+0x2a2>
    2326:	c7 45 ec 00 00 00 00 	movl   $0x0,-0x14(%rbp)
    232d:	eb 28                	jmp    2357 <test_attestation+0x2d3>
    232f:	8b 45 ec             	mov    -0x14(%rbp),%eax
    2332:	48 98                	cltq   
    2334:	48 8d 14 c5 00 00 00 	lea    0x0(,%rax,8),%rdx
    233b:	00 
    233c:	48 8b 05 00 00 00 00 	mov    0x0(%rip),%rax        # 2343 <test_attestation+0x2bf>
    2343:	48 01 d0             	add    %rdx,%rax
    2346:	48 89 c7             	mov    %rax,%rdi
    2349:	b8 00 00 00 00       	mov    $0x0,%eax
    234e:	e8 00 00 00 00       	call   2353 <test_attestation+0x2cf>
    2353:	83 45 ec 01          	addl   $0x1,-0x14(%rbp)
    2357:	81 7d ec ff 01 00 00 	cmpl   $0x1ff,-0x14(%rbp)
    235e:	7e cf                	jle    232f <test_attestation+0x2ab>
    2360:	e8 00 00 00 00       	call   2365 <test_attestation+0x2e1>
    2365:	48 89 45 98          	mov    %rax,-0x68(%rbp)
    2369:	48 8b 45 98          	mov    -0x68(%rbp),%rax
    236d:	48 2b 45 a0          	sub    -0x60(%rbp),%rax
    2371:	48 85 c0             	test   %rax,%rax
    2374:	78 0b                	js     2381 <test_attestation+0x2fd>
    2376:	66 0f ef c0          	pxor   %xmm0,%xmm0
    237a:	f2 48 0f 2a c0       	cvtsi2sd %rax,%xmm0
    237f:	eb 19                	jmp    239a <test_attestation+0x316>
    2381:	48 89 c2             	mov    %rax,%rdx
    2384:	48 d1 ea             	shr    %rdx
    2387:	83 e0 01             	and    $0x1,%eax
    238a:	48 09 c2             	or     %rax,%rdx
    238d:	66 0f ef c0          	pxor   %xmm0,%xmm0
    2391:	f2 48 0f 2a c2       	cvtsi2sd %rdx,%xmm0
    2396:	f2 0f 58 c0          	addsd  %xmm0,%xmm0
    239a:	f2 0f 10 0d 00 00 00 	movsd  0x0(%rip),%xmm1        # 23a2 <test_attestation+0x31e>
    23a1:	00 
    23a2:	f2 0f 5e c1          	divsd  %xmm1,%xmm0
    23a6:	66 0f 2f 05 00 00 00 	comisd 0x0(%rip),%xmm0        # 23ae <test_attestation+0x32a>
    23ad:	00 
    23ae:	73 07                	jae    23b7 <test_attestation+0x333>
    23b0:	f2 48 0f 2c c0       	cvttsd2si %xmm0,%rax
    23b5:	eb 1e                	jmp    23d5 <test_attestation+0x351>
    23b7:	f2 0f 10 0d 00 00 00 	movsd  0x0(%rip),%xmm1        # 23bf <test_attestation+0x33b>
    23be:	00 
    23bf:	f2 0f 5c c1          	subsd  %xmm1,%xmm0
    23c3:	f2 48 0f 2c c0       	cvttsd2si %xmm0,%rax
    23c8:	48 ba 00 00 00 00 00 	movabs $0x8000000000000000,%rdx
    23cf:	00 00 80 
    23d2:	48 31 d0             	xor    %rdx,%rax
    23d5:	48 89 05 00 00 00 00 	mov    %rax,0x0(%rip)        # 23dc <test_attestation+0x358>
    23dc:	8b 45 f8             	mov    -0x8(%rbp),%eax
    23df:	48 63 d0             	movslq %eax,%rdx
    23e2:	48 8b 45 a8          	mov    -0x58(%rbp),%rax
    23e6:	48 01 d0             	add    %rdx,%rax
    23e9:	48 d1 e8             	shr    %rax
    23ec:	89 45 f8             	mov    %eax,-0x8(%rbp)
    23ef:	e8 00 00 00 00       	call   23f4 <test_attestation+0x370>
    23f4:	48 89 45 a0          	mov    %rax,-0x60(%rbp)
    23f8:	c7 45 ec 00 00 00 00 	movl   $0x0,-0x14(%rbp)
    23ff:	eb 2f                	jmp    2430 <test_attestation+0x3ac>
    2401:	48 8b 05 00 00 00 00 	mov    0x0(%rip),%rax        # 2408 <test_attestation+0x384>
    2408:	8b 55 ec             	mov    -0x14(%rbp),%edx
    240b:	48 63 d2             	movslq %edx,%rdx
    240e:	48 8b 0c d0          	mov    (%rax,%rdx,8),%rcx
    2412:	48 8b 05 00 00 00 00 	mov    0x0(%rip),%rax        # 2419 <test_attestation+0x395>
    2419:	8b 55 ec             	mov    -0x14(%rbp),%edx
    241c:	48 63 d2             	movslq %edx,%rdx
    241f:	48 8b 04 d0          	mov    (%rax,%rdx,8),%rax
    2423:	48 39 c1             	cmp    %rax,%rcx
    2426:	75 04                	jne    242c <test_attestation+0x3a8>
    2428:	83 45 f0 01          	addl   $0x1,-0x10(%rbp)
    242c:	83 45 ec 01          	addl   $0x1,-0x14(%rbp)
    2430:	83 7d ec 3f          	cmpl   $0x3f,-0x14(%rbp)
    2434:	7e cb                	jle    2401 <test_attestation+0x37d>
    2436:	e8 00 00 00 00       	call   243b <test_attestation+0x3b7>
    243b:	48 89 45 98          	mov    %rax,-0x68(%rbp)
    243f:	8b 45 f4             	mov    -0xc(%rbp),%eax
    2442:	48 63 d0             	movslq %eax,%rdx
    2445:	48 8b 45 a8          	mov    -0x58(%rbp),%rax
    2449:	48 01 d0             	add    %rdx,%rax
    244c:	48 d1 e8             	shr    %rax
    244f:	89 45 f4             	mov    %eax,-0xc(%rbp)
    2452:	e8 00 00 00 00       	call   2457 <test_attestation+0x3d3>
    2457:	48 89 45 a0          	mov    %rax,-0x60(%rbp)
    245b:	48 8b 95 60 fc ff ff 	mov    -0x3a0(%rbp),%rdx
    2462:	48 8d 8d 60 fc ff ff 	lea    -0x3a0(%rbp),%rcx
    2469:	48 8b 45 c8          	mov    -0x38(%rbp),%rax
    246d:	49 89 c9             	mov    %rcx,%r9
    2470:	49 89 d0             	mov    %rdx,%r8
    2473:	48 8b 15 00 00 00 00 	mov    0x0(%rip),%rdx        # 247a <test_attestation+0x3f6>
    247a:	48 89 d1             	mov    %rdx,%rcx
    247d:	ba 00 00 00 00       	mov    $0x0,%edx
    2482:	be 01 00 00 00       	mov    $0x1,%esi
    2487:	48 89 c7             	mov    %rax,%rdi
    248a:	e8 00 00 00 00       	call   248f <test_attestation+0x40b>
    248f:	c7 45 ec 00 00 00 00 	movl   $0x0,-0x14(%rbp)
    2496:	eb 28                	jmp    24c0 <test_attestation+0x43c>
    2498:	8b 45 ec             	mov    -0x14(%rbp),%eax
    249b:	48 98                	cltq   
    249d:	48 8d 14 c5 00 00 00 	lea    0x0(,%rax,8),%rdx
    24a4:	00 
    24a5:	48 8b 05 00 00 00 00 	mov    0x0(%rip),%rax        # 24ac <test_attestation+0x428>
    24ac:	48 01 d0             	add    %rdx,%rax
    24af:	48 89 c7             	mov    %rax,%rdi
    24b2:	b8 00 00 00 00       	mov    $0x0,%eax
    24b7:	e8 00 00 00 00       	call   24bc <test_attestation+0x438>
    24bc:	83 45 ec 01          	addl   $0x1,-0x14(%rbp)
    24c0:	81 7d ec ff 01 00 00 	cmpl   $0x1ff,-0x14(%rbp)
    24c7:	7e cf                	jle    2498 <test_attestation+0x414>
    24c9:	e8 00 00 00 00       	call   24ce <test_attestation+0x44a>
    24ce:	48 89 45 98          	mov    %rax,-0x68(%rbp)
    24d2:	48 8b 05 00 00 00 00 	mov    0x0(%rip),%rax        # 24d9 <test_attestation+0x455>
    24d9:	48 85 c0             	test   %rax,%rax
    24dc:	78 0b                	js     24e9 <test_attestation+0x465>
    24de:	66 0f ef c9          	pxor   %xmm1,%xmm1
    24e2:	f2 48 0f 2a c8       	cvtsi2sd %rax,%xmm1
    24e7:	eb 1d                	jmp    2506 <test_attestation+0x482>
    24e9:	48 89 c2             	mov    %rax,%rdx
    24ec:	48 d1 ea             	shr    %rdx
    24ef:	83 e0 01             	and    $0x1,%eax
    24f2:	48 09 c2             	or     %rax,%rdx
    24f5:	66 0f ef c0          	pxor   %xmm0,%xmm0
    24f9:	f2 48 0f 2a c2       	cvtsi2sd %rdx,%xmm0
    24fe:	66 0f 28 c8          	movapd %xmm0,%xmm1
    2502:	f2 0f 58 c8          	addsd  %xmm0,%xmm1
    2506:	48 8b 45 98          	mov    -0x68(%rbp),%rax
    250a:	48 2b 45 a0          	sub    -0x60(%rbp),%rax
    250e:	48 85 c0             	test   %rax,%rax
    2511:	78 0b                	js     251e <test_attestation+0x49a>
    2513:	66 0f ef c0          	pxor   %xmm0,%xmm0
    2517:	f2 48 0f 2a c0       	cvtsi2sd %rax,%xmm0
    251c:	eb 19                	jmp    2537 <test_attestation+0x4b3>
    251e:	48 89 c2             	mov    %rax,%rdx
    2521:	48 d1 ea             	shr    %rdx
    2524:	83 e0 01             	and    $0x1,%eax
    2527:	48 09 c2             	or     %rax,%rdx
    252a:	66 0f ef c0          	pxor   %xmm0,%xmm0
    252e:	f2 48 0f 2a c2       	cvtsi2sd %rdx,%xmm0
    2533:	f2 0f 58 c0          	addsd  %xmm0,%xmm0
    2537:	f2 0f 10 15 00 00 00 	movsd  0x0(%rip),%xmm2        # 253f <test_attestation+0x4bb>
    253e:	00 
    253f:	f2 0f 5e c2          	divsd  %xmm2,%xmm0
    2543:	f2 0f 58 c1          	addsd  %xmm1,%xmm0
    2547:	66 0f 2f 05 00 00 00 	comisd 0x0(%rip),%xmm0        # 254f <test_attestation+0x4cb>
    254e:	00 
    254f:	73 07                	jae    2558 <test_attestation+0x4d4>
    2551:	f2 48 0f 2c c0       	cvttsd2si %xmm0,%rax
    2556:	eb 1e                	jmp    2576 <test_attestation+0x4f2>
    2558:	f2 0f 10 0d 00 00 00 	movsd  0x0(%rip),%xmm1        # 2560 <test_attestation+0x4dc>
    255f:	00 
    2560:	f2 0f 5c c1          	subsd  %xmm1,%xmm0
    2564:	f2 48 0f 2c c0       	cvttsd2si %xmm0,%rax
    2569:	48 ba 00 00 00 00 00 	movabs $0x8000000000000000,%rdx
    2570:	00 00 80 
    2573:	48 31 d0             	xor    %rdx,%rax
    2576:	48 89 05 00 00 00 00 	mov    %rax,0x0(%rip)        # 257d <test_attestation+0x4f9>
    257d:	83 45 fc 01          	addl   $0x1,-0x4(%rbp)
    2581:	83 7d fc 00          	cmpl   $0x0,-0x4(%rbp)
    2585:	0f 8e 29 fd ff ff    	jle    22b4 <test_attestation+0x230>
    258b:	66 0f ef c0          	pxor   %xmm0,%xmm0
    258f:	f2 0f 2a 45 f4       	cvtsi2sdl -0xc(%rbp),%xmm0
    2594:	f2 0f 10 0d 00 00 00 	movsd  0x0(%rip),%xmm1        # 259c <test_attestation+0x518>
    259b:	00 
    259c:	66 0f 28 d0          	movapd %xmm0,%xmm2
    25a0:	f2 0f 5e d1          	divsd  %xmm1,%xmm2
    25a4:	66 0f ef c0          	pxor   %xmm0,%xmm0
    25a8:	f2 0f 2a 45 f8       	cvtsi2sdl -0x8(%rbp),%xmm0
    25ad:	f2 0f 10 0d 00 00 00 	movsd  0x0(%rip),%xmm1        # 25b5 <test_attestation+0x531>
    25b4:	00 
    25b5:	f2 0f 5e c1          	divsd  %xmm1,%xmm0
    25b9:	66 48 0f 7e c0       	movq   %xmm0,%rax
    25be:	8b 55 f0             	mov    -0x10(%rbp),%edx
    25c1:	89 d6                	mov    %edx,%esi
    25c3:	66 0f 28 ca          	movapd %xmm2,%xmm1
    25c7:	66 48 0f 6e c0       	movq   %rax,%xmm0
    25cc:	48 8d 05 00 00 00 00 	lea    0x0(%rip),%rax        # 25d3 <test_attestation+0x54f>
    25d3:	48 89 c7             	mov    %rax,%rdi
    25d6:	b8 02 00 00 00       	mov    $0x2,%eax
    25db:	e8 00 00 00 00       	call   25e0 <test_attestation+0x55c>
    25e0:	48 8d 05 00 00 00 00 	lea    0x0(%rip),%rax        # 25e7 <test_attestation+0x563>
    25e7:	48 89 c7             	mov    %rax,%rdi
    25ea:	b8 00 00 00 00       	mov    $0x0,%eax
    25ef:	e8 00 00 00 00       	call   25f4 <test_attestation+0x570>
    25f4:	c7 45 e8 01 00 00 00 	movl   $0x1,-0x18(%rbp)
    25fb:	eb 28                	jmp    2625 <test_attestation+0x5a1>
    25fd:	8b 45 e8             	mov    -0x18(%rbp),%eax
    2600:	48 98                	cltq   
    2602:	48 8b 84 c5 60 fc ff 	mov    -0x3a0(%rbp,%rax,8),%rax
    2609:	ff 
    260a:	48 89 c6             	mov    %rax,%rsi
    260d:	48 8d 05 00 00 00 00 	lea    0x0(%rip),%rax        # 2614 <test_attestation+0x590>
    2614:	48 89 c7             	mov    %rax,%rdi
    2617:	b8 00 00 00 00       	mov    $0x0,%eax
    261c:	e8 00 00 00 00       	call   2621 <test_attestation+0x59d>
    2621:	83 45 e8 01          	addl   $0x1,-0x18(%rbp)
    2625:	83 7d e8 05          	cmpl   $0x5,-0x18(%rbp)
    2629:	7e d2                	jle    25fd <test_attestation+0x579>
    262b:	48 8d 05 00 00 00 00 	lea    0x0(%rip),%rax        # 2632 <test_attestation+0x5ae>
    2632:	48 89 c7             	mov    %rax,%rdi
    2635:	b8 00 00 00 00       	mov    $0x0,%eax
    263a:	e8 00 00 00 00       	call   263f <test_attestation+0x5bb>
    263f:	48 8d 05 00 00 00 00 	lea    0x0(%rip),%rax        # 2646 <test_attestation+0x5c2>
    2646:	48 89 c7             	mov    %rax,%rdi
    2649:	b8 00 00 00 00       	mov    $0x0,%eax
    264e:	e8 00 00 00 00       	call   2653 <test_attestation+0x5cf>
    2653:	c7 45 e8 00 00 00 00 	movl   $0x0,-0x18(%rbp)
    265a:	eb 4a                	jmp    26a6 <test_attestation+0x622>
    265c:	48 8b 05 00 00 00 00 	mov    0x0(%rip),%rax        # 2663 <test_attestation+0x5df>
    2663:	8b 55 e8             	mov    -0x18(%rbp),%edx
    2666:	48 63 d2             	movslq %edx,%rdx
    2669:	48 8b 04 d0          	mov    (%rax,%rdx,8),%rax
    266d:	48 89 c6             	mov    %rax,%rsi
    2670:	48 8d 05 00 00 00 00 	lea    0x0(%rip),%rax        # 2677 <test_attestation+0x5f3>
    2677:	48 89 c7             	mov    %rax,%rdi
    267a:	b8 00 00 00 00       	mov    $0x0,%eax
    267f:	e8 00 00 00 00       	call   2684 <test_attestation+0x600>
    2684:	8b 45 e8             	mov    -0x18(%rbp),%eax
    2687:	83 e0 03             	and    $0x3,%eax
    268a:	85 c0                	test   %eax,%eax
    268c:	75 14                	jne    26a2 <test_attestation+0x61e>
    268e:	48 8d 05 00 00 00 00 	lea    0x0(%rip),%rax        # 2695 <test_attestation+0x611>
    2695:	48 89 c7             	mov    %rax,%rdi
    2698:	b8 00 00 00 00       	mov    $0x0,%eax
    269d:	e8 00 00 00 00       	call   26a2 <test_attestation+0x61e>
    26a2:	83 45 e8 01          	addl   $0x1,-0x18(%rbp)
    26a6:	83 7d e8 3f          	cmpl   $0x3f,-0x18(%rbp)
    26aa:	7e b0                	jle    265c <test_attestation+0x5d8>
    26ac:	48 8b 05 00 00 00 00 	mov    0x0(%rip),%rax        # 26b3 <test_attestation+0x62f>
    26b3:	48 8b 40 60          	mov    0x60(%rax),%rax
    26b7:	48 89 c6             	mov    %rax,%rsi
    26ba:	48 8d 05 00 00 00 00 	lea    0x0(%rip),%rax        # 26c1 <test_attestation+0x63d>
    26c1:	48 89 c7             	mov    %rax,%rdi
    26c4:	b8 00 00 00 00       	mov    $0x0,%eax
    26c9:	e8 00 00 00 00       	call   26ce <test_attestation+0x64a>
    26ce:	48 8b 05 00 00 00 00 	mov    0x0(%rip),%rax        # 26d5 <test_attestation+0x651>
    26d5:	48 8b 40 68          	mov    0x68(%rax),%rax
    26d9:	48 89 c6             	mov    %rax,%rsi
    26dc:	48 8d 05 00 00 00 00 	lea    0x0(%rip),%rax        # 26e3 <test_attestation+0x65f>
    26e3:	48 89 c7             	mov    %rax,%rdi
    26e6:	b8 00 00 00 00       	mov    $0x0,%eax
    26eb:	e8 00 00 00 00       	call   26f0 <test_attestation+0x66c>
    26f0:	48 8b 05 00 00 00 00 	mov    0x0(%rip),%rax        # 26f7 <test_attestation+0x673>
    26f7:	48 8b 40 70          	mov    0x70(%rax),%rax
    26fb:	48 89 c6             	mov    %rax,%rsi
    26fe:	48 8d 05 00 00 00 00 	lea    0x0(%rip),%rax        # 2705 <test_attestation+0x681>
    2705:	48 89 c7             	mov    %rax,%rdi
    2708:	b8 00 00 00 00       	mov    $0x0,%eax
    270d:	e8 00 00 00 00       	call   2712 <test_attestation+0x68e>
    2712:	48 8b 05 00 00 00 00 	mov    0x0(%rip),%rax        # 2719 <test_attestation+0x695>
    2719:	48 8b 40 78          	mov    0x78(%rax),%rax
    271d:	48 89 c6             	mov    %rax,%rsi
    2720:	48 8d 05 00 00 00 00 	lea    0x0(%rip),%rax        # 2727 <test_attestation+0x6a3>
    2727:	48 89 c7             	mov    %rax,%rdi
    272a:	b8 00 00 00 00       	mov    $0x0,%eax
    272f:	e8 00 00 00 00       	call   2734 <test_attestation+0x6b0>
    2734:	48 8b 05 00 00 00 00 	mov    0x0(%rip),%rax        # 273b <test_attestation+0x6b7>
    273b:	48 8b 80 80 00 00 00 	mov    0x80(%rax),%rax
    2742:	48 89 c6             	mov    %rax,%rsi
    2745:	48 8d 05 00 00 00 00 	lea    0x0(%rip),%rax        # 274c <test_attestation+0x6c8>
    274c:	48 89 c7             	mov    %rax,%rdi
    274f:	b8 00 00 00 00       	mov    $0x0,%eax
    2754:	e8 00 00 00 00       	call   2759 <test_attestation+0x6d5>
    2759:	48 8b 05 00 00 00 00 	mov    0x0(%rip),%rax        # 2760 <test_attestation+0x6dc>
    2760:	48 8b 80 88 00 00 00 	mov    0x88(%rax),%rax
    2767:	48 89 c6             	mov    %rax,%rsi
    276a:	48 8d 05 00 00 00 00 	lea    0x0(%rip),%rax        # 2771 <test_attestation+0x6ed>
    2771:	48 89 c7             	mov    %rax,%rdi
    2774:	b8 00 00 00 00       	mov    $0x0,%eax
    2779:	e8 00 00 00 00       	call   277e <test_attestation+0x6fa>
    277e:	48 8b 05 00 00 00 00 	mov    0x0(%rip),%rax        # 2785 <test_attestation+0x701>
    2785:	48 8b 80 90 00 00 00 	mov    0x90(%rax),%rax
    278c:	48 89 c6             	mov    %rax,%rsi
    278f:	48 8d 05 00 00 00 00 	lea    0x0(%rip),%rax        # 2796 <test_attestation+0x712>
    2796:	48 89 c7             	mov    %rax,%rdi
    2799:	b8 00 00 00 00       	mov    $0x0,%eax
    279e:	e8 00 00 00 00       	call   27a3 <test_attestation+0x71f>
    27a3:	83 7d c4 00          	cmpl   $0x0,-0x3c(%rbp)
    27a7:	74 05                	je     27ae <test_attestation+0x72a>
    27a9:	e8 00 00 00 00       	call   27ae <test_attestation+0x72a>
    27ae:	90                   	nop
    27af:	c9                   	leave  
    27b0:	c3                   	ret    

00000000000027b1 <thread_attestation>:
    27b1:	f3 0f 1e fa          	endbr64 
    27b5:	55                   	push   %rbp
    27b6:	48 89 e5             	mov    %rsp,%rbp
    27b9:	48 83 ec 60          	sub    $0x60,%rsp
    27bd:	48 89 7d a8          	mov    %rdi,-0x58(%rbp)
    27c1:	e8 00 00 00 00       	call   27c6 <thread_attestation+0x15>
    27c6:	48 89 45 f0          	mov    %rax,-0x10(%rbp)
    27ca:	e8 00 00 00 00       	call   27cf <thread_attestation+0x1e>
    27cf:	89 45 ec             	mov    %eax,-0x14(%rbp)
    27d2:	8b 45 ec             	mov    -0x14(%rbp),%eax
    27d5:	8d 50 07             	lea    0x7(%rax),%edx
    27d8:	85 c0                	test   %eax,%eax
    27da:	0f 48 c2             	cmovs  %edx,%eax
    27dd:	c1 f8 03             	sar    $0x3,%eax
    27e0:	48 98                	cltq   
    27e2:	48 8d 14 c5 00 00 00 	lea    0x0(,%rax,8),%rdx
    27e9:	00 
    27ea:	48 8b 45 f0          	mov    -0x10(%rbp),%rax
    27ee:	48 01 d0             	add    %rdx,%rax
    27f1:	48 89 45 e0          	mov    %rax,-0x20(%rbp)
    27f5:	e8 00 00 00 00       	call   27fa <thread_attestation+0x49>
    27fa:	48 89 45 c8          	mov    %rax,-0x38(%rbp)
    27fe:	e8 00 00 00 00       	call   2803 <thread_attestation+0x52>
    2803:	48 89 45 d8          	mov    %rax,-0x28(%rbp)
    2807:	ba 00 00 08 00       	mov    $0x80000,%edx
    280c:	be 00 00 00 00       	mov    $0x0,%esi
    2811:	48 8b 05 00 00 00 00 	mov    0x0(%rip),%rax        # 2818 <thread_attestation+0x67>
    2818:	48 89 c7             	mov    %rax,%rdi
    281b:	e8 00 00 00 00       	call   2820 <thread_attestation+0x6f>
    2820:	ba 30 00 00 00       	mov    $0x30,%edx
    2825:	be 00 00 00 00       	mov    $0x0,%esi
    282a:	48 8b 05 00 00 00 00 	mov    0x0(%rip),%rax        # 2831 <thread_attestation+0x80>
    2831:	48 89 c7             	mov    %rax,%rdi
    2834:	e8 00 00 00 00       	call   2839 <thread_attestation+0x88>
    2839:	48 8b 05 00 00 00 00 	mov    0x0(%rip),%rax        # 2840 <thread_attestation+0x8f>
    2840:	8b 00                	mov    (%rax),%eax
    2842:	48 63 d0             	movslq %eax,%rdx
    2845:	48 8b 05 00 00 00 00 	mov    0x0(%rip),%rax        # 284c <thread_attestation+0x9b>
    284c:	48 89 10             	mov    %rdx,(%rax)
    284f:	48 8b 05 00 00 00 00 	mov    0x0(%rip),%rax        # 2856 <thread_attestation+0xa5>
    2856:	48 89 c2             	mov    %rax,%rdx
    2859:	48 8b 05 00 00 00 00 	mov    0x0(%rip),%rax        # 2860 <thread_attestation+0xaf>
    2860:	48 89 50 08          	mov    %rdx,0x8(%rax)
    2864:	48 8d 55 c8          	lea    -0x38(%rbp),%rdx
    2868:	48 8b 05 00 00 00 00 	mov    0x0(%rip),%rax        # 286f <thread_attestation+0xbe>
    286f:	48 89 50 10          	mov    %rdx,0x10(%rax)
    2873:	48 8b 05 00 00 00 00 	mov    0x0(%rip),%rax        # 287a <thread_attestation+0xc9>
    287a:	48 c7 40 18 1e 00 00 	movq   $0x1e,0x18(%rax)
    2881:	00 
    2882:	48 8d 55 c8          	lea    -0x38(%rbp),%rdx
    2886:	48 8b 05 00 00 00 00 	mov    0x0(%rip),%rax        # 288d <thread_attestation+0xdc>
    288d:	48 89 50 20          	mov    %rdx,0x20(%rax)
    2891:	48 8b 05 00 00 00 00 	mov    0x0(%rip),%rax        # 2898 <thread_attestation+0xe7>
    2898:	48 c7 40 28 28 00 00 	movq   $0x28,0x28(%rax)
    289f:	00 
    28a0:	48 8b 45 d8          	mov    -0x28(%rbp),%rax
    28a4:	48 8b 15 00 00 00 00 	mov    0x0(%rip),%rdx        # 28ab <thread_attestation+0xfa>
    28ab:	48 89 d1             	mov    %rdx,%rcx
    28ae:	48 8b 15 00 00 00 00 	mov    0x0(%rip),%rdx        # 28b5 <thread_attestation+0x104>
    28b5:	48 89 c6             	mov    %rax,%rsi
    28b8:	48 8d 05 00 00 00 00 	lea    0x0(%rip),%rax        # 28bf <thread_attestation+0x10e>
    28bf:	48 89 c7             	mov    %rax,%rdi
    28c2:	b8 00 00 00 00       	mov    $0x0,%eax
    28c7:	e8 00 00 00 00       	call   28cc <thread_attestation+0x11b>
    28cc:	48 8d 05 00 00 00 00 	lea    0x0(%rip),%rax        # 28d3 <thread_attestation+0x122>
    28d3:	48 89 c7             	mov    %rax,%rdi
    28d6:	b8 00 00 00 00       	mov    $0x0,%eax
    28db:	e8 00 00 00 00       	call   28e0 <thread_attestation+0x12f>
    28e0:	ba 00 00 08 00       	mov    $0x80000,%edx
    28e5:	be 00 00 00 00       	mov    $0x0,%esi
    28ea:	48 8b 05 00 00 00 00 	mov    0x0(%rip),%rax        # 28f1 <thread_attestation+0x140>
    28f1:	48 89 c7             	mov    %rax,%rdi
    28f4:	e8 00 00 00 00       	call   28f9 <thread_attestation+0x148>
    28f9:	c7 45 d4 00 00 00 00 	movl   $0x0,-0x2c(%rbp)
    2900:	48 c7 45 b0 00 00 00 	movq   $0x0,-0x50(%rbp)
    2907:	00 
    2908:	48 c7 45 b8 00 00 00 	movq   $0x0,-0x48(%rbp)
    290f:	00 
    2910:	48 8b 05 00 00 00 00 	mov    0x0(%rip),%rax        # 2917 <thread_attestation+0x166>
    2917:	48 89 45 b0          	mov    %rax,-0x50(%rbp)
    291b:	c7 45 fc 00 00 00 00 	movl   $0x0,-0x4(%rbp)
    2922:	eb 2c                	jmp    2950 <thread_attestation+0x19f>
    2924:	48 8b 05 00 00 00 00 	mov    0x0(%rip),%rax        # 292b <thread_attestation+0x17a>
    292b:	8b 55 fc             	mov    -0x4(%rbp),%edx
    292e:	48 63 d2             	movslq %edx,%rdx
    2931:	48 8b 04 d0          	mov    (%rax,%rdx,8),%rax
    2935:	48 89 c6             	mov    %rax,%rsi
    2938:	48 8d 05 00 00 00 00 	lea    0x0(%rip),%rax        # 293f <thread_attestation+0x18e>
    293f:	48 89 c7             	mov    %rax,%rdi
    2942:	b8 00 00 00 00       	mov    $0x0,%eax
    2947:	e8 00 00 00 00       	call   294c <thread_attestation+0x19b>
    294c:	83 45 fc 01          	addl   $0x1,-0x4(%rbp)
    2950:	81 7d fc ff 01 00 00 	cmpl   $0x1ff,-0x4(%rbp)
    2957:	7e cb                	jle    2924 <thread_attestation+0x173>
    2959:	48 8d 05 00 00 00 00 	lea    0x0(%rip),%rax        # 2960 <thread_attestation+0x1af>
    2960:	48 89 c7             	mov    %rax,%rdi
    2963:	b8 00 00 00 00       	mov    $0x0,%eax
    2968:	e8 00 00 00 00       	call   296d <thread_attestation+0x1bc>
    296d:	83 7d d4 00          	cmpl   $0x0,-0x2c(%rbp)
    2971:	74 05                	je     2978 <thread_attestation+0x1c7>
    2973:	e8 00 00 00 00       	call   2978 <thread_attestation+0x1c7>
    2978:	90                   	nop
    2979:	c9                   	leave  
    297a:	c3                   	ret    

000000000000297b <thread_general>:
    297b:	f3 0f 1e fa          	endbr64 
    297f:	55                   	push   %rbp
    2980:	48 89 e5             	mov    %rsp,%rbp
    2983:	48 81 ec 90 00 00 00 	sub    $0x90,%rsp
    298a:	48 89 bd 78 ff ff ff 	mov    %rdi,-0x88(%rbp)
    2991:	c7 45 fc 00 00 00 00 	movl   $0x0,-0x4(%rbp)
    2998:	48 c7 45 d0 00 00 00 	movq   $0x0,-0x30(%rbp)
    299f:	00 
    29a0:	48 c7 45 c8 0c 00 00 	movq   $0xc,-0x38(%rbp)
    29a7:	00 
    29a8:	48 c7 45 c0 0d 00 00 	movq   $0xd,-0x40(%rbp)
    29af:	00 
    29b0:	48 8d 05 00 00 00 00 	lea    0x0(%rip),%rax        # 29b7 <thread_general+0x3c>
    29b7:	48 89 c7             	mov    %rax,%rdi
    29ba:	b8 00 00 00 00       	mov    $0x0,%eax
    29bf:	e8 00 00 00 00       	call   29c4 <thread_general+0x49>
    29c4:	ba 00 00 08 00       	mov    $0x80000,%edx
    29c9:	be 00 00 00 00       	mov    $0x0,%esi
    29ce:	48 8b 05 00 00 00 00 	mov    0x0(%rip),%rax        # 29d5 <thread_general+0x5a>
    29d5:	48 89 c7             	mov    %rax,%rdi
    29d8:	e8 00 00 00 00       	call   29dd <thread_general+0x62>
    29dd:	48 c7 45 b8 00 00 00 	movq   $0x0,-0x48(%rbp)
    29e4:	00 
    29e5:	48 c7 45 f0 00 00 00 	movq   $0x0,-0x10(%rbp)
    29ec:	00 
    29ed:	48 c7 45 e8 00 00 00 	movq   $0x0,-0x18(%rbp)
    29f4:	00 
    29f5:	48 c7 45 e0 00 00 00 	movq   $0x0,-0x20(%rbp)
    29fc:	00 
    29fd:	48 b8 35 6b 7b 73 df 	movabs $0xf586b9df737b6b35,%rax
    2a04:	b9 86 f5 
    2a07:	48 89 45 80          	mov    %rax,-0x80(%rbp)
    2a0b:	48 b8 91 ab dd 39 48 	movabs $0x1064f84839ddab91,%rax
    2a12:	f8 64 10 
    2a15:	48 89 45 88          	mov    %rax,-0x78(%rbp)
    2a19:	48 b8 0d 2e 79 e2 d4 	movabs $0x438e33d4e2792e0d,%rax
    2a20:	33 8e 43 
    2a23:	48 89 45 90          	mov    %rax,-0x70(%rbp)
    2a27:	48 b8 d4 92 be 82 a5 	movabs $0xc577d3a582be92d4,%rax
    2a2e:	d3 77 c5 
    2a31:	48 89 45 98          	mov    %rax,-0x68(%rbp)
    2a35:	c7 45 f8 00 00 00 00 	movl   $0x0,-0x8(%rbp)
    2a3c:	e9 33 01 00 00       	jmp    2b74 <thread_general+0x1f9>
    2a41:	48 c7 45 b0 00 00 00 	movq   $0x0,-0x50(%rbp)
    2a48:	00 
    2a49:	48 c7 45 a8 00 00 00 	movq   $0x0,-0x58(%rbp)
    2a50:	00 
    2a51:	e8 00 00 00 00       	call   2a56 <thread_general+0xdb>
    2a56:	48 89 45 b0          	mov    %rax,-0x50(%rbp)
    2a5a:	8b 45 fc             	mov    -0x4(%rbp),%eax
    2a5d:	89 c6                	mov    %eax,%esi
    2a5f:	48 8d 05 00 00 00 00 	lea    0x0(%rip),%rax        # 2a66 <thread_general+0xeb>
    2a66:	48 89 c7             	mov    %rax,%rdi
    2a69:	b8 00 00 00 00       	mov    $0x0,%eax
    2a6e:	e8 00 00 00 00       	call   2a73 <thread_general+0xf8>
    2a73:	48 8b 05 00 00 00 00 	mov    0x0(%rip),%rax        # 2a7a <thread_general+0xff>
    2a7a:	48 8b 00             	mov    (%rax),%rax
    2a7d:	48 89 45 c8          	mov    %rax,-0x38(%rbp)
    2a81:	48 8b 05 00 00 00 00 	mov    0x0(%rip),%rax        # 2a88 <thread_general+0x10d>
    2a88:	48 8b 00             	mov    (%rax),%rax
    2a8b:	48 89 45 c0          	mov    %rax,-0x40(%rbp)
    2a8f:	48 8b 05 00 00 00 00 	mov    0x0(%rip),%rax        # 2a96 <thread_general+0x11b>
    2a96:	48 8b 00             	mov    (%rax),%rax
    2a99:	48 8b 4d c0          	mov    -0x40(%rbp),%rcx
    2a9d:	48 8b 55 c8          	mov    -0x38(%rbp),%rdx
    2aa1:	48 8d 75 a4          	lea    -0x5c(%rbp),%rsi
    2aa5:	48 8b 3d 00 00 00 00 	mov    0x0(%rip),%rdi        # 2aac <thread_general+0x131>
    2aac:	49 89 f8             	mov    %rdi,%r8
    2aaf:	48 89 c7             	mov    %rax,%rdi
    2ab2:	e8 00 00 00 00       	call   2ab7 <thread_general+0x13c>
    2ab7:	89 45 fc             	mov    %eax,-0x4(%rbp)
    2aba:	8b 45 fc             	mov    -0x4(%rbp),%eax
    2abd:	89 c6                	mov    %eax,%esi
    2abf:	48 8d 05 00 00 00 00 	lea    0x0(%rip),%rax        # 2ac6 <thread_general+0x14b>
    2ac6:	48 89 c7             	mov    %rax,%rdi
    2ac9:	b8 00 00 00 00       	mov    $0x0,%eax
    2ace:	e8 00 00 00 00       	call   2ad3 <thread_general+0x158>
    2ad3:	e8 00 00 00 00       	call   2ad8 <thread_general+0x15d>
    2ad8:	48 89 45 a8          	mov    %rax,-0x58(%rbp)
    2adc:	48 8b 45 a8          	mov    -0x58(%rbp),%rax
    2ae0:	48 2b 45 b0          	sub    -0x50(%rbp),%rax
    2ae4:	48 89 45 b8          	mov    %rax,-0x48(%rbp)
    2ae8:	48 83 7d b8 00       	cmpq   $0x0,-0x48(%rbp)
    2aed:	74 12                	je     2b01 <thread_general+0x186>
    2aef:	48 8b 55 f0          	mov    -0x10(%rbp),%rdx
    2af3:	48 8b 45 b8          	mov    -0x48(%rbp),%rax
    2af7:	48 01 d0             	add    %rdx,%rax
    2afa:	48 d1 e8             	shr    %rax
    2afd:	48 89 45 f0          	mov    %rax,-0x10(%rbp)
    2b01:	e8 00 00 00 00       	call   2b06 <thread_general+0x18b>
    2b06:	48 89 45 b0          	mov    %rax,-0x50(%rbp)
    2b0a:	c7 45 dc 00 00 00 00 	movl   $0x0,-0x24(%rbp)
    2b11:	eb 29                	jmp    2b3c <thread_general+0x1c1>
    2b13:	8b 45 dc             	mov    -0x24(%rbp),%eax
    2b16:	48 98                	cltq   
    2b18:	48 8b 4c c5 80       	mov    -0x80(%rbp,%rax,8),%rcx
    2b1d:	48 8b 05 00 00 00 00 	mov    0x0(%rip),%rax        # 2b24 <thread_general+0x1a9>
    2b24:	8b 55 dc             	mov    -0x24(%rbp),%edx
    2b27:	48 63 d2             	movslq %edx,%rdx
    2b2a:	48 8b 04 d0          	mov    (%rax,%rdx,8),%rax
    2b2e:	48 39 c1             	cmp    %rax,%rcx
    2b31:	75 05                	jne    2b38 <thread_general+0x1bd>
    2b33:	48 83 45 e0 01       	addq   $0x1,-0x20(%rbp)
    2b38:	83 45 dc 01          	addl   $0x1,-0x24(%rbp)
    2b3c:	83 7d dc 07          	cmpl   $0x7,-0x24(%rbp)
    2b40:	7e d1                	jle    2b13 <thread_general+0x198>
    2b42:	e8 00 00 00 00       	call   2b47 <thread_general+0x1cc>
    2b47:	48 89 45 a8          	mov    %rax,-0x58(%rbp)
    2b4b:	48 8b 45 a8          	mov    -0x58(%rbp),%rax
    2b4f:	48 2b 45 b0          	sub    -0x50(%rbp),%rax
    2b53:	48 89 45 b8          	mov    %rax,-0x48(%rbp)
    2b57:	48 83 7d b8 00       	cmpq   $0x0,-0x48(%rbp)
    2b5c:	74 12                	je     2b70 <thread_general+0x1f5>
    2b5e:	48 8b 55 e8          	mov    -0x18(%rbp),%rdx
    2b62:	48 8b 45 b8          	mov    -0x48(%rbp),%rax
    2b66:	48 01 d0             	add    %rdx,%rax
    2b69:	48 d1 e8             	shr    %rax
    2b6c:	48 89 45 e8          	mov    %rax,-0x18(%rbp)
    2b70:	83 45 f8 01          	addl   $0x1,-0x8(%rbp)
    2b74:	83 7d f8 00          	cmpl   $0x0,-0x8(%rbp)
    2b78:	0f 8e c3 fe ff ff    	jle    2a41 <thread_general+0xc6>
    2b7e:	48 8b 45 f0          	mov    -0x10(%rbp),%rax
    2b82:	48 85 c0             	test   %rax,%rax
    2b85:	78 0b                	js     2b92 <thread_general+0x217>
    2b87:	66 0f ef c0          	pxor   %xmm0,%xmm0
    2b8b:	f2 48 0f 2a c0       	cvtsi2sd %rax,%xmm0
    2b90:	eb 19                	jmp    2bab <thread_general+0x230>
    2b92:	48 89 c2             	mov    %rax,%rdx
    2b95:	48 d1 ea             	shr    %rdx
    2b98:	83 e0 01             	and    $0x1,%eax
    2b9b:	48 09 c2             	or     %rax,%rdx
    2b9e:	66 0f ef c0          	pxor   %xmm0,%xmm0
    2ba2:	f2 48 0f 2a c2       	cvtsi2sd %rdx,%xmm0
    2ba7:	f2 0f 58 c0          	addsd  %xmm0,%xmm0
    2bab:	f2 0f 10 0d 00 00 00 	movsd  0x0(%rip),%xmm1        # 2bb3 <thread_general+0x238>
    2bb2:	00 
    2bb3:	f2 0f 5e c1          	divsd  %xmm1,%xmm0
    2bb7:	66 48 0f 7e c1       	movq   %xmm0,%rcx
    2bbc:	48 8b 55 e0          	mov    -0x20(%rbp),%rdx
    2bc0:	48 8b 45 f0          	mov    -0x10(%rbp),%rax
    2bc4:	66 48 0f 6e c1       	movq   %rcx,%xmm0
    2bc9:	48 89 c6             	mov    %rax,%rsi
    2bcc:	48 8d 05 00 00 00 00 	lea    0x0(%rip),%rax        # 2bd3 <thread_general+0x258>
    2bd3:	48 89 c7             	mov    %rax,%rdi
    2bd6:	b8 01 00 00 00       	mov    $0x1,%eax
    2bdb:	e8 00 00 00 00       	call   2be0 <thread_general+0x265>
    2be0:	48 8b 45 e8          	mov    -0x18(%rbp),%rax
    2be4:	48 85 c0             	test   %rax,%rax
    2be7:	78 0b                	js     2bf4 <thread_general+0x279>
    2be9:	66 0f ef c0          	pxor   %xmm0,%xmm0
    2bed:	f2 48 0f 2a c0       	cvtsi2sd %rax,%xmm0
    2bf2:	eb 19                	jmp    2c0d <thread_general+0x292>
    2bf4:	48 89 c2             	mov    %rax,%rdx
    2bf7:	48 d1 ea             	shr    %rdx
    2bfa:	83 e0 01             	and    $0x1,%eax
    2bfd:	48 09 c2             	or     %rax,%rdx
    2c00:	66 0f ef c0          	pxor   %xmm0,%xmm0
    2c04:	f2 48 0f 2a c2       	cvtsi2sd %rdx,%xmm0
    2c09:	f2 0f 58 c0          	addsd  %xmm0,%xmm0
    2c0d:	f2 0f 10 0d 00 00 00 	movsd  0x0(%rip),%xmm1        # 2c15 <thread_general+0x29a>
    2c14:	00 
    2c15:	f2 0f 5e c1          	divsd  %xmm1,%xmm0
    2c19:	66 48 0f 7e c1       	movq   %xmm0,%rcx
    2c1e:	48 8b 55 e0          	mov    -0x20(%rbp),%rdx
    2c22:	48 8b 45 e8          	mov    -0x18(%rbp),%rax
    2c26:	66 48 0f 6e c1       	movq   %rcx,%xmm0
    2c2b:	48 89 c6             	mov    %rax,%rsi
    2c2e:	48 8d 05 00 00 00 00 	lea    0x0(%rip),%rax        # 2c35 <thread_general+0x2ba>
    2c35:	48 89 c7             	mov    %rax,%rdi
    2c38:	b8 01 00 00 00       	mov    $0x1,%eax
    2c3d:	e8 00 00 00 00       	call   2c42 <thread_general+0x2c7>
    2c42:	48 8d 05 00 00 00 00 	lea    0x0(%rip),%rax        # 2c49 <thread_general+0x2ce>
    2c49:	48 89 c7             	mov    %rax,%rdi
    2c4c:	b8 00 00 00 00       	mov    $0x0,%eax
    2c51:	e8 00 00 00 00       	call   2c56 <thread_general+0x2db>
    2c56:	c7 45 f8 00 00 00 00 	movl   $0x0,-0x8(%rbp)
    2c5d:	eb 4a                	jmp    2ca9 <thread_general+0x32e>
    2c5f:	48 8b 05 00 00 00 00 	mov    0x0(%rip),%rax        # 2c66 <thread_general+0x2eb>
    2c66:	8b 55 f8             	mov    -0x8(%rbp),%edx
    2c69:	48 63 d2             	movslq %edx,%rdx
    2c6c:	48 8b 04 d0          	mov    (%rax,%rdx,8),%rax
    2c70:	48 89 c6             	mov    %rax,%rsi
    2c73:	48 8d 05 00 00 00 00 	lea    0x0(%rip),%rax        # 2c7a <thread_general+0x2ff>
    2c7a:	48 89 c7             	mov    %rax,%rdi
    2c7d:	b8 00 00 00 00       	mov    $0x0,%eax
    2c82:	e8 00 00 00 00       	call   2c87 <thread_general+0x30c>
    2c87:	8b 45 f8             	mov    -0x8(%rbp),%eax
    2c8a:	83 e0 03             	and    $0x3,%eax
    2c8d:	85 c0                	test   %eax,%eax
    2c8f:	75 14                	jne    2ca5 <thread_general+0x32a>
    2c91:	48 8d 05 00 00 00 00 	lea    0x0(%rip),%rax        # 2c98 <thread_general+0x31d>
    2c98:	48 89 c7             	mov    %rax,%rdi
    2c9b:	b8 00 00 00 00       	mov    $0x0,%eax
    2ca0:	e8 00 00 00 00       	call   2ca5 <thread_general+0x32a>
    2ca5:	83 45 f8 01          	addl   $0x1,-0x8(%rbp)
    2ca9:	83 7d f8 3f          	cmpl   $0x3f,-0x8(%rbp)
    2cad:	7e b0                	jle    2c5f <thread_general+0x2e4>
    2caf:	48 8b 05 00 00 00 00 	mov    0x0(%rip),%rax        # 2cb6 <thread_general+0x33b>
    2cb6:	48 8b 40 60          	mov    0x60(%rax),%rax
    2cba:	48 89 c6             	mov    %rax,%rsi
    2cbd:	48 8d 05 00 00 00 00 	lea    0x0(%rip),%rax        # 2cc4 <thread_general+0x349>
    2cc4:	48 89 c7             	mov    %rax,%rdi
    2cc7:	b8 00 00 00 00       	mov    $0x0,%eax
    2ccc:	e8 00 00 00 00       	call   2cd1 <thread_general+0x356>
    2cd1:	48 8b 05 00 00 00 00 	mov    0x0(%rip),%rax        # 2cd8 <thread_general+0x35d>
    2cd8:	48 8b 40 68          	mov    0x68(%rax),%rax
    2cdc:	48 89 c6             	mov    %rax,%rsi
    2cdf:	48 8d 05 00 00 00 00 	lea    0x0(%rip),%rax        # 2ce6 <thread_general+0x36b>
    2ce6:	48 89 c7             	mov    %rax,%rdi
    2ce9:	b8 00 00 00 00       	mov    $0x0,%eax
    2cee:	e8 00 00 00 00       	call   2cf3 <thread_general+0x378>
    2cf3:	48 8b 05 00 00 00 00 	mov    0x0(%rip),%rax        # 2cfa <thread_general+0x37f>
    2cfa:	48 8b 40 70          	mov    0x70(%rax),%rax
    2cfe:	48 89 c6             	mov    %rax,%rsi
    2d01:	48 8d 05 00 00 00 00 	lea    0x0(%rip),%rax        # 2d08 <thread_general+0x38d>
    2d08:	48 89 c7             	mov    %rax,%rdi
    2d0b:	b8 00 00 00 00       	mov    $0x0,%eax
    2d10:	e8 00 00 00 00       	call   2d15 <thread_general+0x39a>
    2d15:	48 8b 05 00 00 00 00 	mov    0x0(%rip),%rax        # 2d1c <thread_general+0x3a1>
    2d1c:	48 8b 40 78          	mov    0x78(%rax),%rax
    2d20:	48 89 c6             	mov    %rax,%rsi
    2d23:	48 8d 05 00 00 00 00 	lea    0x0(%rip),%rax        # 2d2a <thread_general+0x3af>
    2d2a:	48 89 c7             	mov    %rax,%rdi
    2d2d:	b8 00 00 00 00       	mov    $0x0,%eax
    2d32:	e8 00 00 00 00       	call   2d37 <thread_general+0x3bc>
    2d37:	48 8b 05 00 00 00 00 	mov    0x0(%rip),%rax        # 2d3e <thread_general+0x3c3>
    2d3e:	48 8b 80 80 00 00 00 	mov    0x80(%rax),%rax
    2d45:	48 89 c6             	mov    %rax,%rsi
    2d48:	48 8d 05 00 00 00 00 	lea    0x0(%rip),%rax        # 2d4f <thread_general+0x3d4>
    2d4f:	48 89 c7             	mov    %rax,%rdi
    2d52:	b8 00 00 00 00       	mov    $0x0,%eax
    2d57:	e8 00 00 00 00       	call   2d5c <thread_general+0x3e1>
    2d5c:	48 8b 05 00 00 00 00 	mov    0x0(%rip),%rax        # 2d63 <thread_general+0x3e8>
    2d63:	48 8b 80 88 00 00 00 	mov    0x88(%rax),%rax
    2d6a:	48 89 c6             	mov    %rax,%rsi
    2d6d:	48 8d 05 00 00 00 00 	lea    0x0(%rip),%rax        # 2d74 <thread_general+0x3f9>
    2d74:	48 89 c7             	mov    %rax,%rdi
    2d77:	b8 00 00 00 00       	mov    $0x0,%eax
    2d7c:	e8 00 00 00 00       	call   2d81 <thread_general+0x406>
    2d81:	48 8b 05 00 00 00 00 	mov    0x0(%rip),%rax        # 2d88 <thread_general+0x40d>
    2d88:	48 8b 80 90 00 00 00 	mov    0x90(%rax),%rax
    2d8f:	48 89 c6             	mov    %rax,%rsi
    2d92:	48 8d 05 00 00 00 00 	lea    0x0(%rip),%rax        # 2d99 <thread_general+0x41e>
    2d99:	48 89 c7             	mov    %rax,%rdi
    2d9c:	b8 00 00 00 00       	mov    $0x0,%eax
    2da1:	e8 00 00 00 00       	call   2da6 <thread_general+0x42b>
    2da6:	48 8d 05 00 00 00 00 	lea    0x0(%rip),%rax        # 2dad <thread_general+0x432>
    2dad:	48 89 c7             	mov    %rax,%rdi
    2db0:	b8 00 00 00 00       	mov    $0x0,%eax
    2db5:	e8 00 00 00 00       	call   2dba <thread_general+0x43f>
    2dba:	8b 45 a4             	mov    -0x5c(%rbp),%eax
    2dbd:	89 c6                	mov    %eax,%esi
    2dbf:	48 8d 05 00 00 00 00 	lea    0x0(%rip),%rax        # 2dc6 <thread_general+0x44b>
    2dc6:	48 89 c7             	mov    %rax,%rdi
    2dc9:	b8 00 00 00 00       	mov    $0x0,%eax
    2dce:	e8 00 00 00 00       	call   2dd3 <thread_general+0x458>
    2dd3:	83 7d fc 00          	cmpl   $0x0,-0x4(%rbp)
    2dd7:	74 05                	je     2dde <thread_general+0x463>
    2dd9:	e8 00 00 00 00       	call   2dde <thread_general+0x463>
    2dde:	90                   	nop
    2ddf:	c9                   	leave  
    2de0:	c3                   	ret    

0000000000002de1 <thread_general1>:
    2de1:	f3 0f 1e fa          	endbr64 
    2de5:	55                   	push   %rbp
    2de6:	48 89 e5             	mov    %rsp,%rbp
    2de9:	48 83 c4 80          	add    $0xffffffffffffff80,%rsp
    2ded:	c7 45 fc 01 00 00 00 	movl   $0x1,-0x4(%rbp)
    2df4:	48 c7 45 d0 00 00 00 	movq   $0x0,-0x30(%rbp)
    2dfb:	00 
    2dfc:	48 c7 45 c8 0c 00 00 	movq   $0xc,-0x38(%rbp)
    2e03:	00 
    2e04:	48 c7 45 c0 0d 00 00 	movq   $0xd,-0x40(%rbp)
    2e0b:	00 
    2e0c:	48 8d 05 00 00 00 00 	lea    0x0(%rip),%rax        # 2e13 <thread_general1+0x32>
    2e13:	48 89 c7             	mov    %rax,%rdi
    2e16:	b8 00 00 00 00       	mov    $0x0,%eax
    2e1b:	e8 00 00 00 00       	call   2e20 <thread_general1+0x3f>
    2e20:	ba 00 00 08 00       	mov    $0x80000,%edx
    2e25:	be 00 00 00 00       	mov    $0x0,%esi
    2e2a:	48 8b 05 00 00 00 00 	mov    0x0(%rip),%rax        # 2e31 <thread_general1+0x50>
    2e31:	48 89 c7             	mov    %rax,%rdi
    2e34:	e8 00 00 00 00       	call   2e39 <thread_general1+0x58>
    2e39:	48 c7 45 b8 00 00 00 	movq   $0x0,-0x48(%rbp)
    2e40:	00 
    2e41:	48 c7 45 f0 00 00 00 	movq   $0x0,-0x10(%rbp)
    2e48:	00 
    2e49:	48 c7 45 e8 00 00 00 	movq   $0x0,-0x18(%rbp)
    2e50:	00 
    2e51:	48 c7 45 e0 00 00 00 	movq   $0x0,-0x20(%rbp)
    2e58:	00 
    2e59:	48 b8 35 6b 7b 73 df 	movabs $0xf586b9df737b6b35,%rax
    2e60:	b9 86 f5 
    2e63:	48 89 45 80          	mov    %rax,-0x80(%rbp)
    2e67:	48 b8 91 ab dd 39 48 	movabs $0x1064f84839ddab91,%rax
    2e6e:	f8 64 10 
    2e71:	48 89 45 88          	mov    %rax,-0x78(%rbp)
    2e75:	48 b8 0d 2e 79 e2 d4 	movabs $0x438e33d4e2792e0d,%rax
    2e7c:	33 8e 43 
    2e7f:	48 89 45 90          	mov    %rax,-0x70(%rbp)
    2e83:	48 b8 d4 92 be 82 a5 	movabs $0xc577d3a582be92d4,%rax
    2e8a:	d3 77 c5 
    2e8d:	48 89 45 98          	mov    %rax,-0x68(%rbp)
    2e91:	c7 45 f8 00 00 00 00 	movl   $0x0,-0x8(%rbp)
    2e98:	e9 f1 00 00 00       	jmp    2f8e <thread_general1+0x1ad>
    2e9d:	48 8b 05 00 00 00 00 	mov    0x0(%rip),%rax        # 2ea4 <thread_general1+0xc3>
    2ea4:	48 8b 00             	mov    (%rax),%rax
    2ea7:	48 89 45 c8          	mov    %rax,-0x38(%rbp)
    2eab:	48 8b 05 00 00 00 00 	mov    0x0(%rip),%rax        # 2eb2 <thread_general1+0xd1>
    2eb2:	48 8b 00             	mov    (%rax),%rax
    2eb5:	48 89 45 c0          	mov    %rax,-0x40(%rbp)
    2eb9:	e8 00 00 00 00       	call   2ebe <thread_general1+0xdd>
    2ebe:	48 89 45 b0          	mov    %rax,-0x50(%rbp)
    2ec2:	48 8b 05 00 00 00 00 	mov    0x0(%rip),%rax        # 2ec9 <thread_general1+0xe8>
    2ec9:	48 8b 00             	mov    (%rax),%rax
    2ecc:	48 8b 4d c0          	mov    -0x40(%rbp),%rcx
    2ed0:	48 8b 55 c8          	mov    -0x38(%rbp),%rdx
    2ed4:	48 8d 75 a4          	lea    -0x5c(%rbp),%rsi
    2ed8:	48 8b 3d 00 00 00 00 	mov    0x0(%rip),%rdi        # 2edf <thread_general1+0xfe>
    2edf:	49 89 f8             	mov    %rdi,%r8
    2ee2:	48 89 c7             	mov    %rax,%rdi
    2ee5:	e8 00 00 00 00       	call   2eea <thread_general1+0x109>
    2eea:	89 45 fc             	mov    %eax,-0x4(%rbp)
    2eed:	e8 00 00 00 00       	call   2ef2 <thread_general1+0x111>
    2ef2:	48 89 45 a8          	mov    %rax,-0x58(%rbp)
    2ef6:	48 8b 45 a8          	mov    -0x58(%rbp),%rax
    2efa:	48 2b 45 b0          	sub    -0x50(%rbp),%rax
    2efe:	48 89 45 b8          	mov    %rax,-0x48(%rbp)
    2f02:	48 83 7d b8 00       	cmpq   $0x0,-0x48(%rbp)
    2f07:	74 12                	je     2f1b <thread_general1+0x13a>
    2f09:	48 8b 55 f0          	mov    -0x10(%rbp),%rdx
    2f0d:	48 8b 45 b8          	mov    -0x48(%rbp),%rax
    2f11:	48 01 d0             	add    %rdx,%rax
    2f14:	48 d1 e8             	shr    %rax
    2f17:	48 89 45 f0          	mov    %rax,-0x10(%rbp)
    2f1b:	e8 00 00 00 00       	call   2f20 <thread_general1+0x13f>
    2f20:	48 89 45 b0          	mov    %rax,-0x50(%rbp)
    2f24:	c7 45 dc 00 00 00 00 	movl   $0x0,-0x24(%rbp)
    2f2b:	eb 29                	jmp    2f56 <thread_general1+0x175>
    2f2d:	8b 45 dc             	mov    -0x24(%rbp),%eax
    2f30:	48 98                	cltq   
    2f32:	48 8b 4c c5 80       	mov    -0x80(%rbp,%rax,8),%rcx
    2f37:	48 8b 05 00 00 00 00 	mov    0x0(%rip),%rax        # 2f3e <thread_general1+0x15d>
    2f3e:	8b 55 dc             	mov    -0x24(%rbp),%edx
    2f41:	48 63 d2             	movslq %edx,%rdx
    2f44:	48 8b 04 d0          	mov    (%rax,%rdx,8),%rax
    2f48:	48 39 c1             	cmp    %rax,%rcx
    2f4b:	75 05                	jne    2f52 <thread_general1+0x171>
    2f4d:	48 83 45 e0 01       	addq   $0x1,-0x20(%rbp)
    2f52:	83 45 dc 01          	addl   $0x1,-0x24(%rbp)
    2f56:	83 7d dc 07          	cmpl   $0x7,-0x24(%rbp)
    2f5a:	7e d1                	jle    2f2d <thread_general1+0x14c>
    2f5c:	e8 00 00 00 00       	call   2f61 <thread_general1+0x180>
    2f61:	48 89 45 a8          	mov    %rax,-0x58(%rbp)
    2f65:	48 8b 45 a8          	mov    -0x58(%rbp),%rax
    2f69:	48 2b 45 b0          	sub    -0x50(%rbp),%rax
    2f6d:	48 89 45 b8          	mov    %rax,-0x48(%rbp)
    2f71:	48 83 7d b8 00       	cmpq   $0x0,-0x48(%rbp)
    2f76:	74 12                	je     2f8a <thread_general1+0x1a9>
    2f78:	48 8b 55 e8          	mov    -0x18(%rbp),%rdx
    2f7c:	48 8b 45 b8          	mov    -0x48(%rbp),%rax
    2f80:	48 01 d0             	add    %rdx,%rax
    2f83:	48 d1 e8             	shr    %rax
    2f86:	48 89 45 e8          	mov    %rax,-0x18(%rbp)
    2f8a:	83 45 f8 01          	addl   $0x1,-0x8(%rbp)
    2f8e:	83 7d f8 00          	cmpl   $0x0,-0x8(%rbp)
    2f92:	0f 8e 05 ff ff ff    	jle    2e9d <thread_general1+0xbc>
    2f98:	48 8d 05 00 00 00 00 	lea    0x0(%rip),%rax        # 2f9f <thread_general1+0x1be>
    2f9f:	48 89 c7             	mov    %rax,%rdi
    2fa2:	b8 00 00 00 00       	mov    $0x0,%eax
    2fa7:	e8 00 00 00 00       	call   2fac <thread_general1+0x1cb>
    2fac:	c7 45 f8 00 00 00 00 	movl   $0x0,-0x8(%rbp)
    2fb3:	eb 4a                	jmp    2fff <thread_general1+0x21e>
    2fb5:	48 8b 05 00 00 00 00 	mov    0x0(%rip),%rax        # 2fbc <thread_general1+0x1db>
    2fbc:	8b 55 f8             	mov    -0x8(%rbp),%edx
    2fbf:	48 63 d2             	movslq %edx,%rdx
    2fc2:	48 8b 04 d0          	mov    (%rax,%rdx,8),%rax
    2fc6:	48 89 c6             	mov    %rax,%rsi
    2fc9:	48 8d 05 00 00 00 00 	lea    0x0(%rip),%rax        # 2fd0 <thread_general1+0x1ef>
    2fd0:	48 89 c7             	mov    %rax,%rdi
    2fd3:	b8 00 00 00 00       	mov    $0x0,%eax
    2fd8:	e8 00 00 00 00       	call   2fdd <thread_general1+0x1fc>
    2fdd:	8b 45 f8             	mov    -0x8(%rbp),%eax
    2fe0:	83 e0 03             	and    $0x3,%eax
    2fe3:	85 c0                	test   %eax,%eax
    2fe5:	75 14                	jne    2ffb <thread_general1+0x21a>
    2fe7:	48 8d 05 00 00 00 00 	lea    0x0(%rip),%rax        # 2fee <thread_general1+0x20d>
    2fee:	48 89 c7             	mov    %rax,%rdi
    2ff1:	b8 00 00 00 00       	mov    $0x0,%eax
    2ff6:	e8 00 00 00 00       	call   2ffb <thread_general1+0x21a>
    2ffb:	83 45 f8 01          	addl   $0x1,-0x8(%rbp)
    2fff:	83 7d f8 3f          	cmpl   $0x3f,-0x8(%rbp)
    3003:	7e b0                	jle    2fb5 <thread_general1+0x1d4>
    3005:	48 8b 05 00 00 00 00 	mov    0x0(%rip),%rax        # 300c <thread_general1+0x22b>
    300c:	48 8b 40 60          	mov    0x60(%rax),%rax
    3010:	48 89 c6             	mov    %rax,%rsi
    3013:	48 8d 05 00 00 00 00 	lea    0x0(%rip),%rax        # 301a <thread_general1+0x239>
    301a:	48 89 c7             	mov    %rax,%rdi
    301d:	b8 00 00 00 00       	mov    $0x0,%eax
    3022:	e8 00 00 00 00       	call   3027 <thread_general1+0x246>
    3027:	48 8b 05 00 00 00 00 	mov    0x0(%rip),%rax        # 302e <thread_general1+0x24d>
    302e:	48 8b 40 68          	mov    0x68(%rax),%rax
    3032:	48 89 c6             	mov    %rax,%rsi
    3035:	48 8d 05 00 00 00 00 	lea    0x0(%rip),%rax        # 303c <thread_general1+0x25b>
    303c:	48 89 c7             	mov    %rax,%rdi
    303f:	b8 00 00 00 00       	mov    $0x0,%eax
    3044:	e8 00 00 00 00       	call   3049 <thread_general1+0x268>
    3049:	48 8b 05 00 00 00 00 	mov    0x0(%rip),%rax        # 3050 <thread_general1+0x26f>
    3050:	48 8b 40 70          	mov    0x70(%rax),%rax
    3054:	48 89 c6             	mov    %rax,%rsi
    3057:	48 8d 05 00 00 00 00 	lea    0x0(%rip),%rax        # 305e <thread_general1+0x27d>
    305e:	48 89 c7             	mov    %rax,%rdi
    3061:	b8 00 00 00 00       	mov    $0x0,%eax
    3066:	e8 00 00 00 00       	call   306b <thread_general1+0x28a>
    306b:	48 8b 05 00 00 00 00 	mov    0x0(%rip),%rax        # 3072 <thread_general1+0x291>
    3072:	48 8b 40 78          	mov    0x78(%rax),%rax
    3076:	48 89 c6             	mov    %rax,%rsi
    3079:	48 8d 05 00 00 00 00 	lea    0x0(%rip),%rax        # 3080 <thread_general1+0x29f>
    3080:	48 89 c7             	mov    %rax,%rdi
    3083:	b8 00 00 00 00       	mov    $0x0,%eax
    3088:	e8 00 00 00 00       	call   308d <thread_general1+0x2ac>
    308d:	48 8b 05 00 00 00 00 	mov    0x0(%rip),%rax        # 3094 <thread_general1+0x2b3>
    3094:	48 8b 80 80 00 00 00 	mov    0x80(%rax),%rax
    309b:	48 89 c6             	mov    %rax,%rsi
    309e:	48 8d 05 00 00 00 00 	lea    0x0(%rip),%rax        # 30a5 <thread_general1+0x2c4>
    30a5:	48 89 c7             	mov    %rax,%rdi
    30a8:	b8 00 00 00 00       	mov    $0x0,%eax
    30ad:	e8 00 00 00 00       	call   30b2 <thread_general1+0x2d1>
    30b2:	48 8b 05 00 00 00 00 	mov    0x0(%rip),%rax        # 30b9 <thread_general1+0x2d8>
    30b9:	48 8b 80 88 00 00 00 	mov    0x88(%rax),%rax
    30c0:	48 89 c6             	mov    %rax,%rsi
    30c3:	48 8d 05 00 00 00 00 	lea    0x0(%rip),%rax        # 30ca <thread_general1+0x2e9>
    30ca:	48 89 c7             	mov    %rax,%rdi
    30cd:	b8 00 00 00 00       	mov    $0x0,%eax
    30d2:	e8 00 00 00 00       	call   30d7 <thread_general1+0x2f6>
    30d7:	48 8b 05 00 00 00 00 	mov    0x0(%rip),%rax        # 30de <thread_general1+0x2fd>
    30de:	48 8b 80 90 00 00 00 	mov    0x90(%rax),%rax
    30e5:	48 89 c6             	mov    %rax,%rsi
    30e8:	48 8d 05 00 00 00 00 	lea    0x0(%rip),%rax        # 30ef <thread_general1+0x30e>
    30ef:	48 89 c7             	mov    %rax,%rdi
    30f2:	b8 00 00 00 00       	mov    $0x0,%eax
    30f7:	e8 00 00 00 00       	call   30fc <thread_general1+0x31b>
    30fc:	48 8d 05 00 00 00 00 	lea    0x0(%rip),%rax        # 3103 <thread_general1+0x322>
    3103:	48 89 c7             	mov    %rax,%rdi
    3106:	b8 00 00 00 00       	mov    $0x0,%eax
    310b:	e8 00 00 00 00       	call   3110 <thread_general1+0x32f>
    3110:	8b 45 a4             	mov    -0x5c(%rbp),%eax
    3113:	89 c6                	mov    %eax,%esi
    3115:	48 8d 05 00 00 00 00 	lea    0x0(%rip),%rax        # 311c <thread_general1+0x33b>
    311c:	48 89 c7             	mov    %rax,%rdi
    311f:	b8 00 00 00 00       	mov    $0x0,%eax
    3124:	e8 00 00 00 00       	call   3129 <thread_general1+0x348>
    3129:	83 7d fc 00          	cmpl   $0x0,-0x4(%rbp)
    312d:	74 05                	je     3134 <thread_general1+0x353>
    312f:	e8 00 00 00 00       	call   3134 <thread_general1+0x353>
    3134:	90                   	nop
    3135:	c9                   	leave  
    3136:	c3                   	ret    

0000000000003137 <thread_general2>:
    3137:	f3 0f 1e fa          	endbr64 
    313b:	55                   	push   %rbp
    313c:	48 89 e5             	mov    %rsp,%rbp
    313f:	48 83 c4 80          	add    $0xffffffffffffff80,%rsp
    3143:	c7 45 fc 01 00 00 00 	movl   $0x1,-0x4(%rbp)
    314a:	48 c7 45 d0 00 00 00 	movq   $0x0,-0x30(%rbp)
    3151:	00 
    3152:	48 c7 45 c8 0c 00 00 	movq   $0xc,-0x38(%rbp)
    3159:	00 
    315a:	48 c7 45 c0 0d 00 00 	movq   $0xd,-0x40(%rbp)
    3161:	00 
    3162:	48 8d 05 00 00 00 00 	lea    0x0(%rip),%rax        # 3169 <thread_general2+0x32>
    3169:	48 89 c7             	mov    %rax,%rdi
    316c:	b8 00 00 00 00       	mov    $0x0,%eax
    3171:	e8 00 00 00 00       	call   3176 <thread_general2+0x3f>
    3176:	ba 00 00 08 00       	mov    $0x80000,%edx
    317b:	be 00 00 00 00       	mov    $0x0,%esi
    3180:	48 8b 05 00 00 00 00 	mov    0x0(%rip),%rax        # 3187 <thread_general2+0x50>
    3187:	48 89 c7             	mov    %rax,%rdi
    318a:	e8 00 00 00 00       	call   318f <thread_general2+0x58>
    318f:	48 c7 45 b8 00 00 00 	movq   $0x0,-0x48(%rbp)
    3196:	00 
    3197:	48 c7 45 f0 00 00 00 	movq   $0x0,-0x10(%rbp)
    319e:	00 
    319f:	48 c7 45 e8 00 00 00 	movq   $0x0,-0x18(%rbp)
    31a6:	00 
    31a7:	48 c7 45 e0 00 00 00 	movq   $0x0,-0x20(%rbp)
    31ae:	00 
    31af:	48 b8 35 6b 7b 73 df 	movabs $0xf586b9df737b6b35,%rax
    31b6:	b9 86 f5 
    31b9:	48 89 45 80          	mov    %rax,-0x80(%rbp)
    31bd:	48 b8 91 ab dd 39 48 	movabs $0x1064f84839ddab91,%rax
    31c4:	f8 64 10 
    31c7:	48 89 45 88          	mov    %rax,-0x78(%rbp)
    31cb:	48 b8 0d 2e 79 e2 d4 	movabs $0x438e33d4e2792e0d,%rax
    31d2:	33 8e 43 
    31d5:	48 89 45 90          	mov    %rax,-0x70(%rbp)
    31d9:	48 b8 d4 92 be 82 a5 	movabs $0xc577d3a582be92d4,%rax
    31e0:	d3 77 c5 
    31e3:	48 89 45 98          	mov    %rax,-0x68(%rbp)
    31e7:	c7 45 f8 00 00 00 00 	movl   $0x0,-0x8(%rbp)
    31ee:	e9 01 01 00 00       	jmp    32f4 <thread_general2+0x1bd>
    31f3:	e8 00 00 00 00       	call   31f8 <thread_general2+0xc1>
    31f8:	48 89 45 b0          	mov    %rax,-0x50(%rbp)
    31fc:	e8 00 00 00 00       	call   3201 <thread_general2+0xca>
    3201:	48 89 45 a8          	mov    %rax,-0x58(%rbp)
    3205:	48 c7 45 b0 00 00 00 	movq   $0x0,-0x50(%rbp)
    320c:	00 
    320d:	48 c7 45 a8 00 00 00 	movq   $0x0,-0x58(%rbp)
    3214:	00 
    3215:	e8 00 00 00 00       	call   321a <thread_general2+0xe3>
    321a:	48 89 45 b0          	mov    %rax,-0x50(%rbp)
    321e:	48 8b 05 00 00 00 00 	mov    0x0(%rip),%rax        # 3225 <thread_general2+0xee>
    3225:	48 8b 00             	mov    (%rax),%rax
    3228:	48 8b 4d c0          	mov    -0x40(%rbp),%rcx
    322c:	48 8b 55 c8          	mov    -0x38(%rbp),%rdx
    3230:	48 8d 75 a4          	lea    -0x5c(%rbp),%rsi
    3234:	48 8b 3d 00 00 00 00 	mov    0x0(%rip),%rdi        # 323b <thread_general2+0x104>
    323b:	49 89 f8             	mov    %rdi,%r8
    323e:	48 89 c7             	mov    %rax,%rdi
    3241:	e8 00 00 00 00       	call   3246 <thread_general2+0x10f>
    3246:	89 45 fc             	mov    %eax,-0x4(%rbp)
    3249:	e8 00 00 00 00       	call   324e <thread_general2+0x117>
    324e:	48 89 45 a8          	mov    %rax,-0x58(%rbp)
    3252:	48 8b 45 a8          	mov    -0x58(%rbp),%rax
    3256:	48 2b 45 b0          	sub    -0x50(%rbp),%rax
    325a:	48 89 45 b8          	mov    %rax,-0x48(%rbp)
    325e:	48 83 7d b8 00       	cmpq   $0x0,-0x48(%rbp)
    3263:	74 12                	je     3277 <thread_general2+0x140>
    3265:	48 8b 55 f0          	mov    -0x10(%rbp),%rdx
    3269:	48 8b 45 b8          	mov    -0x48(%rbp),%rax
    326d:	48 01 d0             	add    %rdx,%rax
    3270:	48 d1 e8             	shr    %rax
    3273:	48 89 45 f0          	mov    %rax,-0x10(%rbp)
    3277:	e8 00 00 00 00       	call   327c <thread_general2+0x145>
    327c:	48 89 45 b0          	mov    %rax,-0x50(%rbp)
    3280:	c7 45 dc 00 00 00 00 	movl   $0x0,-0x24(%rbp)
    3287:	eb 29                	jmp    32b2 <thread_general2+0x17b>
    3289:	8b 45 dc             	mov    -0x24(%rbp),%eax
    328c:	48 98                	cltq   
    328e:	48 8b 4c c5 80       	mov    -0x80(%rbp,%rax,8),%rcx
    3293:	48 8b 05 00 00 00 00 	mov    0x0(%rip),%rax        # 329a <thread_general2+0x163>
    329a:	8b 55 dc             	mov    -0x24(%rbp),%edx
    329d:	48 63 d2             	movslq %edx,%rdx
    32a0:	48 8b 04 d0          	mov    (%rax,%rdx,8),%rax
    32a4:	48 39 c1             	cmp    %rax,%rcx
    32a7:	75 05                	jne    32ae <thread_general2+0x177>
    32a9:	48 83 45 e0 01       	addq   $0x1,-0x20(%rbp)
    32ae:	83 45 dc 01          	addl   $0x1,-0x24(%rbp)
    32b2:	83 7d dc 03          	cmpl   $0x3,-0x24(%rbp)
    32b6:	7e d1                	jle    3289 <thread_general2+0x152>
    32b8:	e8 00 00 00 00       	call   32bd <thread_general2+0x186>
    32bd:	48 89 45 a8          	mov    %rax,-0x58(%rbp)
    32c1:	48 8b 45 a8          	mov    -0x58(%rbp),%rax
    32c5:	48 2b 45 b0          	sub    -0x50(%rbp),%rax
    32c9:	48 89 45 b8          	mov    %rax,-0x48(%rbp)
    32cd:	48 83 7d b8 00       	cmpq   $0x0,-0x48(%rbp)
    32d2:	74 12                	je     32e6 <thread_general2+0x1af>
    32d4:	48 8b 55 e8          	mov    -0x18(%rbp),%rdx
    32d8:	48 8b 45 b8          	mov    -0x48(%rbp),%rax
    32dc:	48 01 d0             	add    %rdx,%rax
    32df:	48 d1 e8             	shr    %rax
    32e2:	48 89 45 e8          	mov    %rax,-0x18(%rbp)
    32e6:	48 8b 05 00 00 00 00 	mov    0x0(%rip),%rax        # 32ed <thread_general2+0x1b6>
    32ed:	0f ae 38             	clflush (%rax)
    32f0:	83 45 f8 01          	addl   $0x1,-0x8(%rbp)
    32f4:	83 7d f8 00          	cmpl   $0x0,-0x8(%rbp)
    32f8:	0f 8e f5 fe ff ff    	jle    31f3 <thread_general2+0xbc>
    32fe:	48 8b 45 f0          	mov    -0x10(%rbp),%rax
    3302:	48 85 c0             	test   %rax,%rax
    3305:	78 0b                	js     3312 <thread_general2+0x1db>
    3307:	66 0f ef c0          	pxor   %xmm0,%xmm0
    330b:	f2 48 0f 2a c0       	cvtsi2sd %rax,%xmm0
    3310:	eb 19                	jmp    332b <thread_general2+0x1f4>
    3312:	48 89 c2             	mov    %rax,%rdx
    3315:	48 d1 ea             	shr    %rdx
    3318:	83 e0 01             	and    $0x1,%eax
    331b:	48 09 c2             	or     %rax,%rdx
    331e:	66 0f ef c0          	pxor   %xmm0,%xmm0
    3322:	f2 48 0f 2a c2       	cvtsi2sd %rdx,%xmm0
    3327:	f2 0f 58 c0          	addsd  %xmm0,%xmm0
    332b:	f2 0f 10 0d 00 00 00 	movsd  0x0(%rip),%xmm1        # 3333 <thread_general2+0x1fc>
    3332:	00 
    3333:	f2 0f 5e c1          	divsd  %xmm1,%xmm0
    3337:	66 48 0f 7e c1       	movq   %xmm0,%rcx
    333c:	48 8b 55 e0          	mov    -0x20(%rbp),%rdx
    3340:	48 8b 45 f0          	mov    -0x10(%rbp),%rax
    3344:	66 48 0f 6e c1       	movq   %rcx,%xmm0
    3349:	48 89 c6             	mov    %rax,%rsi
    334c:	48 8d 05 00 00 00 00 	lea    0x0(%rip),%rax        # 3353 <thread_general2+0x21c>
    3353:	48 89 c7             	mov    %rax,%rdi
    3356:	b8 01 00 00 00       	mov    $0x1,%eax
    335b:	e8 00 00 00 00       	call   3360 <thread_general2+0x229>
    3360:	48 8b 45 e8          	mov    -0x18(%rbp),%rax
    3364:	48 85 c0             	test   %rax,%rax
    3367:	78 0b                	js     3374 <thread_general2+0x23d>
    3369:	66 0f ef c0          	pxor   %xmm0,%xmm0
    336d:	f2 48 0f 2a c0       	cvtsi2sd %rax,%xmm0
    3372:	eb 19                	jmp    338d <thread_general2+0x256>
    3374:	48 89 c2             	mov    %rax,%rdx
    3377:	48 d1 ea             	shr    %rdx
    337a:	83 e0 01             	and    $0x1,%eax
    337d:	48 09 c2             	or     %rax,%rdx
    3380:	66 0f ef c0          	pxor   %xmm0,%xmm0
    3384:	f2 48 0f 2a c2       	cvtsi2sd %rdx,%xmm0
    3389:	f2 0f 58 c0          	addsd  %xmm0,%xmm0
    338d:	f2 0f 10 0d 00 00 00 	movsd  0x0(%rip),%xmm1        # 3395 <thread_general2+0x25e>
    3394:	00 
    3395:	f2 0f 5e c1          	divsd  %xmm1,%xmm0
    3399:	66 48 0f 7e c1       	movq   %xmm0,%rcx
    339e:	48 8b 55 e0          	mov    -0x20(%rbp),%rdx
    33a2:	48 8b 45 e8          	mov    -0x18(%rbp),%rax
    33a6:	66 48 0f 6e c1       	movq   %rcx,%xmm0
    33ab:	48 89 c6             	mov    %rax,%rsi
    33ae:	48 8d 05 00 00 00 00 	lea    0x0(%rip),%rax        # 33b5 <thread_general2+0x27e>
    33b5:	48 89 c7             	mov    %rax,%rdi
    33b8:	b8 01 00 00 00       	mov    $0x1,%eax
    33bd:	e8 00 00 00 00       	call   33c2 <thread_general2+0x28b>
    33c2:	48 8d 05 00 00 00 00 	lea    0x0(%rip),%rax        # 33c9 <thread_general2+0x292>
    33c9:	48 89 c7             	mov    %rax,%rdi
    33cc:	b8 00 00 00 00       	mov    $0x0,%eax
    33d1:	e8 00 00 00 00       	call   33d6 <thread_general2+0x29f>
    33d6:	c7 45 f8 00 00 00 00 	movl   $0x0,-0x8(%rbp)
    33dd:	eb 41                	jmp    3420 <thread_general2+0x2e9>
    33df:	48 8b 05 00 00 00 00 	mov    0x0(%rip),%rax        # 33e6 <thread_general2+0x2af>
    33e6:	8b 55 f8             	mov    -0x8(%rbp),%edx
    33e9:	48 63 d2             	movslq %edx,%rdx
    33ec:	48 8b 04 d0          	mov    (%rax,%rdx,8),%rax
    33f0:	48 89 c6             	mov    %rax,%rsi
    33f3:	48 8d 05 00 00 00 00 	lea    0x0(%rip),%rax        # 33fa <thread_general2+0x2c3>
    33fa:	48 89 c7             	mov    %rax,%rdi
    33fd:	b8 00 00 00 00       	mov    $0x0,%eax
    3402:	e8 00 00 00 00       	call   3407 <thread_general2+0x2d0>
    3407:	48 8b 05 00 00 00 00 	mov    0x0(%rip),%rax        # 340e <thread_general2+0x2d7>
    340e:	8b 55 f8             	mov    -0x8(%rbp),%edx
    3411:	48 63 d2             	movslq %edx,%rdx
    3414:	48 c7 04 d0 00 00 00 	movq   $0x0,(%rax,%rdx,8)
    341b:	00 
    341c:	83 45 f8 01          	addl   $0x1,-0x8(%rbp)
    3420:	83 7d f8 4f          	cmpl   $0x4f,-0x8(%rbp)
    3424:	7e b9                	jle    33df <thread_general2+0x2a8>
    3426:	ba 00 00 08 00       	mov    $0x80000,%edx
    342b:	be 00 00 00 00       	mov    $0x0,%esi
    3430:	48 8b 05 00 00 00 00 	mov    0x0(%rip),%rax        # 3437 <thread_general2+0x300>
    3437:	48 89 c7             	mov    %rax,%rdi
    343a:	e8 00 00 00 00       	call   343f <thread_general2+0x308>
    343f:	48 8d 05 00 00 00 00 	lea    0x0(%rip),%rax        # 3446 <thread_general2+0x30f>
    3446:	48 89 c7             	mov    %rax,%rdi
    3449:	b8 00 00 00 00       	mov    $0x0,%eax
    344e:	e8 00 00 00 00       	call   3453 <thread_general2+0x31c>
    3453:	8b 45 a4             	mov    -0x5c(%rbp),%eax
    3456:	89 c6                	mov    %eax,%esi
    3458:	48 8d 05 00 00 00 00 	lea    0x0(%rip),%rax        # 345f <thread_general2+0x328>
    345f:	48 89 c7             	mov    %rax,%rdi
    3462:	b8 00 00 00 00       	mov    $0x0,%eax
    3467:	e8 00 00 00 00       	call   346c <thread_general2+0x335>
    346c:	83 7d fc 00          	cmpl   $0x0,-0x4(%rbp)
    3470:	74 05                	je     3477 <thread_general2+0x340>
    3472:	e8 00 00 00 00       	call   3477 <thread_general2+0x340>
    3477:	90                   	nop
    3478:	c9                   	leave  
    3479:	c3                   	ret    

000000000000347a <ocall_print_string>:
    347a:	f3 0f 1e fa          	endbr64 
    347e:	55                   	push   %rbp
    347f:	48 89 e5             	mov    %rsp,%rbp
    3482:	48 83 ec 10          	sub    $0x10,%rsp
    3486:	48 89 7d f8          	mov    %rdi,-0x8(%rbp)
    348a:	e8 00 00 00 00       	call   348f <ocall_print_string+0x15>
    348f:	48 89 c1             	mov    %rax,%rcx
    3492:	48 8b 45 f8          	mov    -0x8(%rbp),%rax
    3496:	48 89 c2             	mov    %rax,%rdx
    3499:	48 89 ce             	mov    %rcx,%rsi
    349c:	48 8d 05 00 00 00 00 	lea    0x0(%rip),%rax        # 34a3 <ocall_print_string+0x29>
    34a3:	48 89 c7             	mov    %rax,%rdi
    34a6:	b8 00 00 00 00       	mov    $0x0,%eax
    34ab:	e8 00 00 00 00       	call   34b0 <ocall_print_string+0x36>
    34b0:	48 8b 05 00 00 00 00 	mov    0x0(%rip),%rax        # 34b7 <ocall_print_string+0x3d>
    34b7:	8b 00                	mov    (%rax),%eax
    34b9:	8d 50 ff             	lea    -0x1(%rax),%edx
    34bc:	48 8b 05 00 00 00 00 	mov    0x0(%rip),%rax        # 34c3 <ocall_print_string+0x49>
    34c3:	89 10                	mov    %edx,(%rax)
    34c5:	48 8b 05 00 00 00 00 	mov    0x0(%rip),%rax        # 34cc <ocall_print_string+0x52>
    34cc:	8b 00                	mov    (%rax),%eax
    34ce:	83 f8 01             	cmp    $0x1,%eax
    34d1:	7f 21                	jg     34f4 <ocall_print_string+0x7a>
    34d3:	bf 0a 00 00 00       	mov    $0xa,%edi
    34d8:	e8 00 00 00 00       	call   34dd <ocall_print_string+0x63>
    34dd:	bf 01 00 00 00       	mov    $0x1,%edi
    34e2:	e8 00 00 00 00       	call   34e7 <ocall_print_string+0x6d>
    34e7:	48 8b 05 00 00 00 00 	mov    0x0(%rip),%rax        # 34ee <ocall_print_string+0x74>
    34ee:	c7 00 64 00 00 00    	movl   $0x64,(%rax)
    34f4:	90                   	nop
    34f5:	c9                   	leave  
    34f6:	c3                   	ret    

00000000000034f7 <thread_func>:
    34f7:	f3 0f 1e fa          	endbr64 
    34fb:	55                   	push   %rbp
    34fc:	48 89 e5             	mov    %rsp,%rbp
    34ff:	48 83 ec 10          	sub    $0x10,%rsp
    3503:	48 89 7d f8          	mov    %rdi,-0x8(%rbp)
    3507:	48 8d 05 00 00 00 00 	lea    0x0(%rip),%rax        # 350e <thread_func+0x17>
    350e:	48 89 c7             	mov    %rax,%rdi
    3511:	b8 00 00 00 00       	mov    $0x0,%eax
    3516:	e8 00 00 00 00       	call   351b <thread_func+0x24>
    351b:	48 8d 05 00 00 00 00 	lea    0x0(%rip),%rax        # 3522 <thread_func+0x2b>
    3522:	48 89 c7             	mov    %rax,%rdi
    3525:	b8 00 00 00 00       	mov    $0x0,%eax
    352a:	e8 00 00 00 00       	call   352f <thread_func+0x38>
    352f:	48 8b 05 00 00 00 00 	mov    0x0(%rip),%rax        # 3536 <thread_func+0x3f>
    3536:	48 8b 00             	mov    (%rax),%rax
    3539:	48 89 c7             	mov    %rax,%rdi
    353c:	e8 00 00 00 00       	call   3541 <thread_func+0x4a>
    3541:	48 8d 05 00 00 00 00 	lea    0x0(%rip),%rax        # 3548 <thread_func+0x51>
    3548:	48 89 c7             	mov    %rax,%rdi
    354b:	b8 00 00 00 00       	mov    $0x0,%eax
    3550:	e8 00 00 00 00       	call   3555 <thread_func+0x5e>
    3555:	48 8b 05 00 00 00 00 	mov    0x0(%rip),%rax        # 355c <thread_func+0x65>
    355c:	48 8b 00             	mov    (%rax),%rax
    355f:	b9 00 00 00 00       	mov    $0x0,%ecx
    3564:	ba 01 00 00 00       	mov    $0x1,%edx
    3569:	48 8b 35 00 00 00 00 	mov    0x0(%rip),%rsi        # 3570 <thread_func+0x79>
    3570:	48 89 c7             	mov    %rax,%rdi
    3573:	e8 00 00 00 00       	call   3578 <thread_func+0x81>
    3578:	48 8b 05 00 00 00 00 	mov    0x0(%rip),%rax        # 357f <thread_func+0x88>
    357f:	48 8b 00             	mov    (%rax),%rax
    3582:	b9 01 00 00 00       	mov    $0x1,%ecx
    3587:	ba 01 00 00 00       	mov    $0x1,%edx
    358c:	48 8b 35 00 00 00 00 	mov    0x0(%rip),%rsi        # 3593 <thread_func+0x9c>
    3593:	48 89 c7             	mov    %rax,%rdi
    3596:	e8 00 00 00 00       	call   359b <thread_func+0xa4>
    359b:	48 8b 05 00 00 00 00 	mov    0x0(%rip),%rax        # 35a2 <thread_func+0xab>
    35a2:	48 8b 00             	mov    (%rax),%rax
    35a5:	b9 00 00 00 00       	mov    $0x0,%ecx
    35aa:	ba 01 00 00 00       	mov    $0x1,%edx
    35af:	48 8b 35 00 00 00 00 	mov    0x0(%rip),%rsi        # 35b6 <thread_func+0xbf>
    35b6:	48 89 c7             	mov    %rax,%rdi
    35b9:	e8 00 00 00 00       	call   35be <thread_func+0xc7>
    35be:	48 8b 05 00 00 00 00 	mov    0x0(%rip),%rax        # 35c5 <thread_func+0xce>
    35c5:	0f b6 00             	movzbl (%rax),%eax
    35c8:	0f be c0             	movsbl %al,%eax
    35cb:	0f b6 f0             	movzbl %al,%esi
    35ce:	48 8b 05 00 00 00 00 	mov    0x0(%rip),%rax        # 35d5 <thread_func+0xde>
    35d5:	0f b6 00             	movzbl (%rax),%eax
    35d8:	0f be c0             	movsbl %al,%eax
    35db:	0f b6 c8             	movzbl %al,%ecx
    35de:	48 8b 05 00 00 00 00 	mov    0x0(%rip),%rax        # 35e5 <thread_func+0xee>
    35e5:	48 8b 10             	mov    (%rax),%rdx
    35e8:	48 8b 05 00 00 00 00 	mov    0x0(%rip),%rax        # 35ef <thread_func+0xf8>
    35ef:	48 8b 00             	mov    (%rax),%rax
    35f2:	41 89 f0             	mov    %esi,%r8d
    35f5:	48 89 c6             	mov    %rax,%rsi
    35f8:	48 8d 05 00 00 00 00 	lea    0x0(%rip),%rax        # 35ff <thread_func+0x108>
    35ff:	48 89 c7             	mov    %rax,%rdi
    3602:	b8 00 00 00 00       	mov    $0x0,%eax
    3607:	e8 00 00 00 00       	call   360c <thread_func+0x115>
    360c:	48 8b 05 00 00 00 00 	mov    0x0(%rip),%rax        # 3613 <thread_func+0x11c>
    3613:	48 8b 00             	mov    (%rax),%rax
    3616:	48 89 c7             	mov    %rax,%rdi
    3619:	e8 00 00 00 00       	call   361e <thread_func+0x127>
    361e:	b8 00 00 00 00       	mov    $0x0,%eax
    3623:	c9                   	leave  
    3624:	c3                   	ret    

0000000000003625 <test1_code>:
    3625:	f3 0f 1e fa          	endbr64 
    3629:	55                   	push   %rbp
    362a:	48 89 e5             	mov    %rsp,%rbp
    362d:	48 83 ec 20          	sub    $0x20,%rsp
    3631:	89 7d ec             	mov    %edi,-0x14(%rbp)
    3634:	c7 45 fc 00 00 00 00 	movl   $0x0,-0x4(%rbp)
    363b:	c7 45 f8 02 00 00 00 	movl   $0x2,-0x8(%rbp)
    3642:	c7 45 f4 01 00 00 00 	movl   $0x1,-0xc(%rbp)
    3649:	83 7d ec 00          	cmpl   $0x0,-0x14(%rbp)
    364d:	75 0d                	jne    365c <test1_code+0x37>
    364f:	8b 55 f8             	mov    -0x8(%rbp),%edx
    3652:	8b 45 f4             	mov    -0xc(%rbp),%eax
    3655:	01 d0                	add    %edx,%eax
    3657:	89 45 fc             	mov    %eax,-0x4(%rbp)
    365a:	eb 09                	jmp    3665 <test1_code+0x40>
    365c:	8b 45 f8             	mov    -0x8(%rbp),%eax
    365f:	2b 45 f4             	sub    -0xc(%rbp),%eax
    3662:	89 45 fc             	mov    %eax,-0x4(%rbp)
    3665:	8b 45 fc             	mov    -0x4(%rbp),%eax
    3668:	89 c6                	mov    %eax,%esi
    366a:	48 8d 05 00 00 00 00 	lea    0x0(%rip),%rax        # 3671 <test1_code+0x4c>
    3671:	48 89 c7             	mov    %rax,%rdi
    3674:	b8 00 00 00 00       	mov    $0x0,%eax
    3679:	e8 00 00 00 00       	call   367e <test1_code+0x59>
    367e:	90                   	nop
    367f:	c9                   	leave  
    3680:	c3                   	ret    

0000000000003681 <print_attack>:
    3681:	f3 0f 1e fa          	endbr64 
    3685:	55                   	push   %rbp
    3686:	48 89 e5             	mov    %rsp,%rbp
    3689:	90                   	nop
    368a:	5d                   	pop    %rbp
    368b:	c3                   	ret    

000000000000368c <attacked>:
    368c:	f3 0f 1e fa          	endbr64 
    3690:	55                   	push   %rbp
    3691:	48 89 e5             	mov    %rsp,%rbp
    3694:	48 8b 05 00 00 00 00 	mov    0x0(%rip),%rax        # 369b <attacked+0xf>
    369b:	48 89 c4             	mov    %rax,%rsp
    369e:	48 81 c4 00 10 00 00 	add    $0x1000,%rsp
    36a5:	e8 00 00 00 00       	call   36aa <attacked+0x1e>
    36aa:	90                   	nop
    36ab:	5d                   	pop    %rbp
    36ac:	c3                   	ret    

00000000000036ad <ocall_get_ptr>:
    36ad:	f3 0f 1e fa          	endbr64 
    36b1:	55                   	push   %rbp
    36b2:	48 89 e5             	mov    %rsp,%rbp
    36b5:	48 89 7d f8          	mov    %rdi,-0x8(%rbp)
    36b9:	48 8b 05 00 00 00 00 	mov    0x0(%rip),%rax        # 36c0 <ocall_get_ptr+0x13>
    36c0:	48 89 c2             	mov    %rax,%rdx
    36c3:	48 8b 45 f8          	mov    -0x8(%rbp),%rax
    36c7:	48 89 10             	mov    %rdx,(%rax)
    36ca:	90                   	nop
    36cb:	5d                   	pop    %rbp
    36cc:	c3                   	ret    

00000000000036cd <ocall_build_payload>:
    36cd:	f3 0f 1e fa          	endbr64 
    36d1:	55                   	push   %rbp
    36d2:	48 89 e5             	mov    %rsp,%rbp
    36d5:	48 83 ec 10          	sub    $0x10,%rsp
    36d9:	48 89 7d f8          	mov    %rdi,-0x8(%rbp)
    36dd:	48 89 75 f0          	mov    %rsi,-0x10(%rbp)
    36e1:	48 8b 05 00 00 00 00 	mov    0x0(%rip),%rax        # 36e8 <ocall_build_payload+0x1b>
    36e8:	48 8b 00             	mov    (%rax),%rax
    36eb:	48 89 c6             	mov    %rax,%rsi
    36ee:	48 8d 05 00 00 00 00 	lea    0x0(%rip),%rax        # 36f5 <ocall_build_payload+0x28>
    36f5:	48 89 c7             	mov    %rax,%rdi
    36f8:	b8 00 00 00 00       	mov    $0x0,%eax
    36fd:	e8 00 00 00 00       	call   3702 <ocall_build_payload+0x35>
    3702:	48 8b 05 00 00 00 00 	mov    0x0(%rip),%rax        # 3709 <ocall_build_payload+0x3c>
    3709:	48 8b 00             	mov    (%rax),%rax
    370c:	48 8d 90 84 40 00 00 	lea    0x4084(%rax),%rdx
    3713:	48 8b 45 f8          	mov    -0x8(%rbp),%rax
    3717:	48 89 10             	mov    %rdx,(%rax)
    371a:	48 8b 45 f8          	mov    -0x8(%rbp),%rax
    371e:	48 83 c0 08          	add    $0x8,%rax
    3722:	48 c7 00 ff ff ff ff 	movq   $0xffffffffffffffff,(%rax)
    3729:	48 8b 05 00 00 00 00 	mov    0x0(%rip),%rax        # 3730 <ocall_build_payload+0x63>
    3730:	48 8b 10             	mov    (%rax),%rdx
    3733:	48 8b 45 f8          	mov    -0x8(%rbp),%rax
    3737:	48 83 c0 10          	add    $0x10,%rax
    373b:	48 81 c2 8f 40 00 00 	add    $0x408f,%rdx
    3742:	48 89 10             	mov    %rdx,(%rax)
    3745:	48 8b 45 f8          	mov    -0x8(%rbp),%rax
    3749:	48 83 c0 18          	add    $0x18,%rax
    374d:	48 8b 15 00 00 00 00 	mov    0x0(%rip),%rdx        # 3754 <ocall_build_payload+0x87>
    3754:	48 89 10             	mov    %rdx,(%rax)
    3757:	48 8b 05 00 00 00 00 	mov    0x0(%rip),%rax        # 375e <ocall_build_payload+0x91>
    375e:	48 8b 10             	mov    (%rax),%rdx
    3761:	48 8b 45 f8          	mov    -0x8(%rbp),%rax
    3765:	48 83 c0 20          	add    $0x20,%rax
    3769:	48 81 c2 99 40 00 00 	add    $0x4099,%rdx
    3770:	48 89 10             	mov    %rdx,(%rax)
    3773:	48 8b 45 f8          	mov    -0x8(%rbp),%rax
    3777:	48 8b 00             	mov    (%rax),%rax
    377a:	48 89 c6             	mov    %rax,%rsi
    377d:	48 8d 05 00 00 00 00 	lea    0x0(%rip),%rax        # 3784 <ocall_build_payload+0xb7>
    3784:	48 89 c7             	mov    %rax,%rdi
    3787:	b8 00 00 00 00       	mov    $0x0,%eax
    378c:	e8 00 00 00 00       	call   3791 <ocall_build_payload+0xc4>
    3791:	90                   	nop
    3792:	c9                   	leave  
    3793:	c3                   	ret    

0000000000003794 <test2_code>:
    3794:	f3 0f 1e fa          	endbr64 
    3798:	55                   	push   %rbp
    3799:	48 89 e5             	mov    %rsp,%rbp
    379c:	53                   	push   %rbx
    379d:	48 83 ec 78          	sub    $0x78,%rsp
    37a1:	48 c7 45 80 00 00 00 	movq   $0x0,-0x80(%rbp)
    37a8:	00 
    37a9:	48 c7 45 88 00 00 00 	movq   $0x0,-0x78(%rbp)
    37b0:	00 
    37b1:	48 c7 45 90 00 00 00 	movq   $0x0,-0x70(%rbp)
    37b8:	00 
    37b9:	48 c7 45 98 00 00 00 	movq   $0x0,-0x68(%rbp)
    37c0:	00 
    37c1:	48 c7 45 a0 00 00 00 	movq   $0x0,-0x60(%rbp)
    37c8:	00 
    37c9:	48 c7 45 a8 00 00 00 	movq   $0x0,-0x58(%rbp)
    37d0:	00 
    37d1:	48 c7 45 b0 00 00 00 	movq   $0x0,-0x50(%rbp)
    37d8:	00 
    37d9:	48 c7 45 b8 00 00 00 	movq   $0x0,-0x48(%rbp)
    37e0:	00 
    37e1:	48 8b 05 00 00 00 00 	mov    0x0(%rip),%rax        # 37e8 <test2_code+0x54>
    37e8:	48 8b 00             	mov    (%rax),%rax
    37eb:	48 05 84 40 00 00    	add    $0x4084,%rax
    37f1:	48 89 45 c0          	mov    %rax,-0x40(%rbp)
    37f5:	48 c7 45 c8 ff ff ff 	movq   $0xffffffffffffffff,-0x38(%rbp)
    37fc:	ff 
    37fd:	48 8b 05 00 00 00 00 	mov    0x0(%rip),%rax        # 3804 <test2_code+0x70>
    3804:	48 8b 00             	mov    (%rax),%rax
    3807:	48 05 8f 40 00 00    	add    $0x408f,%rax
    380d:	48 89 45 d0          	mov    %rax,-0x30(%rbp)
    3811:	48 8b 05 00 00 00 00 	mov    0x0(%rip),%rax        # 3818 <test2_code+0x84>
    3818:	48 89 45 d8          	mov    %rax,-0x28(%rbp)
    381c:	48 8b 05 00 00 00 00 	mov    0x0(%rip),%rax        # 3823 <test2_code+0x8f>
    3823:	48 8b 00             	mov    (%rax),%rax
    3826:	48 05 99 40 00 00    	add    $0x4099,%rax
    382c:	48 89 45 e0          	mov    %rax,-0x20(%rbp)
    3830:	48 8d 4d c0          	lea    -0x40(%rbp),%rcx
    3834:	48 8d 45 80          	lea    -0x80(%rbp),%rax
    3838:	ba 28 00 00 00       	mov    $0x28,%edx
    383d:	48 89 ce             	mov    %rcx,%rsi
    3840:	48 89 c7             	mov    %rax,%rdi
    3843:	e8 00 00 00 00       	call   3848 <test2_code+0xb4>
    3848:	4c 8b 55 b8          	mov    -0x48(%rbp),%r10
    384c:	4c 8b 4d b0          	mov    -0x50(%rbp),%r9
    3850:	4c 8b 45 a8          	mov    -0x58(%rbp),%r8
    3854:	48 8b 7d a0          	mov    -0x60(%rbp),%rdi
    3858:	48 8b 75 98          	mov    -0x68(%rbp),%rsi
    385c:	4c 8b 5d 90          	mov    -0x70(%rbp),%r11
    3860:	48 8b 4d 88          	mov    -0x78(%rbp),%rcx
    3864:	48 8b 55 80          	mov    -0x80(%rbp),%rdx
    3868:	48 8d 45 80          	lea    -0x80(%rbp),%rax
    386c:	48 8d 58 10          	lea    0x10(%rax),%rbx
    3870:	48 8d 45 80          	lea    -0x80(%rbp),%rax
    3874:	48 83 ec 08          	sub    $0x8,%rsp
    3878:	41 52                	push   %r10
    387a:	41 51                	push   %r9
    387c:	4c 8d 4d 80          	lea    -0x80(%rbp),%r9
    3880:	49 83 c1 30          	add    $0x30,%r9
    3884:	41 51                	push   %r9
    3886:	41 50                	push   %r8
    3888:	57                   	push   %rdi
    3889:	48 8d 7d 80          	lea    -0x80(%rbp),%rdi
    388d:	48 83 c7 20          	add    $0x20,%rdi
    3891:	57                   	push   %rdi
    3892:	56                   	push   %rsi
    3893:	4d 89 d9             	mov    %r11,%r9
    3896:	49 89 d8             	mov    %rbx,%r8
    3899:	48 89 c6             	mov    %rax,%rsi
    389c:	48 8d 05 00 00 00 00 	lea    0x0(%rip),%rax        # 38a3 <test2_code+0x10f>
    38a3:	48 89 c7             	mov    %rax,%rdi
    38a6:	b8 00 00 00 00       	mov    $0x0,%eax
    38ab:	e8 00 00 00 00       	call   38b0 <test2_code+0x11c>
    38b0:	48 83 c4 40          	add    $0x40,%rsp
    38b4:	48 8d 05 00 00 00 00 	lea    0x0(%rip),%rax        # 38bb <test2_code+0x127>
    38bb:	48 89 c7             	mov    %rax,%rdi
    38be:	b8 00 00 00 00       	mov    $0x0,%eax
    38c3:	e8 00 00 00 00       	call   38c8 <test2_code+0x134>
    38c8:	90                   	nop
    38c9:	48 8b 5d f8          	mov    -0x8(%rbp),%rbx
    38cd:	c9                   	leave  
    38ce:	c3                   	ret    

00000000000038cf <create_secret>:
    38cf:	f3 0f 1e fa          	endbr64 
    38d3:	55                   	push   %rbp
    38d4:	48 89 e5             	mov    %rsp,%rbp
    38d7:	48 83 ec 50          	sub    $0x50,%rsp
    38db:	48 89 7d b8          	mov    %rdi,-0x48(%rbp)
    38df:	48 89 75 b0          	mov    %rsi,-0x50(%rbp)
    38e3:	c7 45 f4 10 00 00 00 	movl   $0x10,-0xc(%rbp)
    38ea:	48 8b 55 b0          	mov    -0x50(%rbp),%rdx
    38ee:	48 8b 45 b8          	mov    -0x48(%rbp),%rax
    38f2:	41 b8 00 10 00 00    	mov    $0x1000,%r8d
    38f8:	48 89 d1             	mov    %rdx,%rcx
    38fb:	48 89 c2             	mov    %rax,%rdx
    38fe:	be 10 00 00 00       	mov    $0x10,%esi
    3903:	48 8b 05 00 00 00 00 	mov    0x0(%rip),%rax        # 390a <create_secret+0x3b>
    390a:	48 89 c7             	mov    %rax,%rdi
    390d:	e8 00 00 00 00       	call   3912 <create_secret+0x43>
    3912:	48 8d 05 00 00 00 00 	lea    0x0(%rip),%rax        # 3919 <create_secret+0x4a>
    3919:	48 89 c7             	mov    %rax,%rdi
    391c:	b8 00 00 00 00       	mov    $0x0,%eax
    3921:	e8 00 00 00 00       	call   3926 <create_secret+0x57>
    3926:	8b 45 f4             	mov    -0xc(%rbp),%eax
    3929:	48 98                	cltq   
    392b:	48 89 c7             	mov    %rax,%rdi
    392e:	e8 00 00 00 00       	call   3933 <create_secret+0x64>
    3933:	48 89 45 e8          	mov    %rax,-0x18(%rbp)
    3937:	8b 45 f4             	mov    -0xc(%rbp),%eax
    393a:	48 63 d0             	movslq %eax,%rdx
    393d:	48 8b 45 e8          	mov    -0x18(%rbp),%rax
    3941:	be 00 00 00 00       	mov    $0x0,%esi
    3946:	48 89 c7             	mov    %rax,%rdi
    3949:	e8 00 00 00 00       	call   394e <create_secret+0x7f>
    394e:	bf 00 00 00 00       	mov    $0x0,%edi
    3953:	e8 00 00 00 00       	call   3958 <create_secret+0x89>
    3958:	89 c7                	mov    %eax,%edi
    395a:	e8 00 00 00 00       	call   395f <create_secret+0x90>
    395f:	bf 10 27 00 00       	mov    $0x2710,%edi
    3964:	e8 00 00 00 00       	call   3969 <create_secret+0x9a>
    3969:	89 45 e4             	mov    %eax,-0x1c(%rbp)
    396c:	bf 10 27 00 00       	mov    $0x2710,%edi
    3971:	e8 00 00 00 00       	call   3976 <create_secret+0xa7>
    3976:	89 45 e0             	mov    %eax,-0x20(%rbp)
    3979:	8b 45 e4             	mov    -0x1c(%rbp),%eax
    397c:	0f af 45 e0          	imul   -0x20(%rbp),%eax
    3980:	89 45 dc             	mov    %eax,-0x24(%rbp)
    3983:	83 7d dc 7f          	cmpl   $0x7f,-0x24(%rbp)
    3987:	7f 16                	jg     399f <create_secret+0xd0>
    3989:	48 8d 05 00 00 00 00 	lea    0x0(%rip),%rax        # 3990 <create_secret+0xc1>
    3990:	48 89 c7             	mov    %rax,%rdi
    3993:	b8 00 00 00 00       	mov    $0x0,%eax
    3998:	e8 00 00 00 00       	call   399d <create_secret+0xce>
    399d:	eb c0                	jmp    395f <create_secret+0x90>
    399f:	90                   	nop
    39a0:	8b 45 dc             	mov    -0x24(%rbp),%eax
    39a3:	c1 f8 15             	sar    $0x15,%eax
    39a6:	85 c0                	test   %eax,%eax
    39a8:	74 09                	je     39b3 <create_secret+0xe4>
    39aa:	c7 45 fc 03 00 00 00 	movl   $0x3,-0x4(%rbp)
    39b1:	eb 1a                	jmp    39cd <create_secret+0xfe>
    39b3:	8b 45 dc             	mov    -0x24(%rbp),%eax
    39b6:	c1 f8 0e             	sar    $0xe,%eax
    39b9:	85 c0                	test   %eax,%eax
    39bb:	74 09                	je     39c6 <create_secret+0xf7>
    39bd:	c7 45 fc 02 00 00 00 	movl   $0x2,-0x4(%rbp)
    39c4:	eb 07                	jmp    39cd <create_secret+0xfe>
    39c6:	c7 45 fc 01 00 00 00 	movl   $0x1,-0x4(%rbp)
    39cd:	8b 45 fc             	mov    -0x4(%rbp),%eax
    39d0:	89 c6                	mov    %eax,%esi
    39d2:	48 8d 05 00 00 00 00 	lea    0x0(%rip),%rax        # 39d9 <create_secret+0x10a>
    39d9:	48 89 c7             	mov    %rax,%rdi
    39dc:	b8 00 00 00 00       	mov    $0x0,%eax
    39e1:	e8 00 00 00 00       	call   39e6 <create_secret+0x117>
    39e6:	8b 45 e4             	mov    -0x1c(%rbp),%eax
    39e9:	8d 50 ff             	lea    -0x1(%rax),%edx
    39ec:	8b 45 e0             	mov    -0x20(%rbp),%eax
    39ef:	83 e8 01             	sub    $0x1,%eax
    39f2:	0f af c2             	imul   %edx,%eax
    39f5:	89 45 d8             	mov    %eax,-0x28(%rbp)
    39f8:	8b 45 d8             	mov    -0x28(%rbp),%eax
    39fb:	be e8 03 00 00       	mov    $0x3e8,%esi
    3a00:	89 c7                	mov    %eax,%edi
    3a02:	e8 00 00 00 00       	call   3a07 <create_secret+0x138>
    3a07:	89 45 d4             	mov    %eax,-0x2c(%rbp)
    3a0a:	8b 55 d8             	mov    -0x28(%rbp),%edx
    3a0d:	8b 45 d4             	mov    -0x2c(%rbp),%eax
    3a10:	89 d6                	mov    %edx,%esi
    3a12:	89 c7                	mov    %eax,%edi
    3a14:	e8 00 00 00 00       	call   3a19 <create_secret+0x14a>
    3a19:	89 45 d0             	mov    %eax,-0x30(%rbp)
    3a1c:	8b 4d dc             	mov    -0x24(%rbp),%ecx
    3a1f:	8b 55 d4             	mov    -0x2c(%rbp),%edx
    3a22:	8b 75 fc             	mov    -0x4(%rbp),%esi
    3a25:	8b 45 f4             	mov    -0xc(%rbp),%eax
    3a28:	41 89 c8             	mov    %ecx,%r8d
    3a2b:	89 d1                	mov    %edx,%ecx
    3a2d:	48 8b 15 00 00 00 00 	mov    0x0(%rip),%rdx        # 3a34 <create_secret+0x165>
    3a34:	89 c7                	mov    %eax,%edi
    3a36:	e8 00 00 00 00       	call   3a3b <create_secret+0x16c>
    3a3b:	48 89 45 c8          	mov    %rax,-0x38(%rbp)
    3a3f:	8b 45 f4             	mov    -0xc(%rbp),%eax
    3a42:	48 63 d0             	movslq %eax,%rdx
    3a45:	48 8b 4d c8          	mov    -0x38(%rbp),%rcx
    3a49:	48 8b 45 e8          	mov    -0x18(%rbp),%rax
    3a4d:	48 89 ce             	mov    %rcx,%rsi
    3a50:	48 89 c7             	mov    %rax,%rdi
    3a53:	e8 00 00 00 00       	call   3a58 <create_secret+0x189>
    3a58:	8b 45 f4             	mov    -0xc(%rbp),%eax
    3a5b:	99                   	cltd   
    3a5c:	f7 7d fc             	idivl  -0x4(%rbp)
    3a5f:	89 c7                	mov    %eax,%edi
    3a61:	8b 75 dc             	mov    -0x24(%rbp),%esi
    3a64:	8b 4d d0             	mov    -0x30(%rbp),%ecx
    3a67:	48 8b 55 c8          	mov    -0x38(%rbp),%rdx
    3a6b:	8b 45 fc             	mov    -0x4(%rbp),%eax
    3a6e:	41 89 f0             	mov    %esi,%r8d
    3a71:	89 c6                	mov    %eax,%esi
    3a73:	e8 00 00 00 00       	call   3a78 <create_secret+0x1a9>
    3a78:	48 89 45 c0          	mov    %rax,-0x40(%rbp)
    3a7c:	c7 45 f8 00 00 00 00 	movl   $0x0,-0x8(%rbp)
    3a83:	eb 30                	jmp    3ab5 <create_secret+0x1e6>
    3a85:	8b 45 f8             	mov    -0x8(%rbp),%eax
    3a88:	48 98                	cltq   
    3a8a:	48 8d 14 85 00 00 00 	lea    0x0(,%rax,4),%rdx
    3a91:	00 
    3a92:	48 8b 45 c0          	mov    -0x40(%rbp),%rax
    3a96:	48 01 d0             	add    %rdx,%rax
    3a99:	8b 00                	mov    (%rax),%eax
    3a9b:	89 c6                	mov    %eax,%esi
    3a9d:	48 8d 05 00 00 00 00 	lea    0x0(%rip),%rax        # 3aa4 <create_secret+0x1d5>
    3aa4:	48 89 c7             	mov    %rax,%rdi
    3aa7:	b8 00 00 00 00       	mov    $0x0,%eax
    3aac:	e8 00 00 00 00       	call   3ab1 <create_secret+0x1e2>
    3ab1:	83 45 f8 01          	addl   $0x1,-0x8(%rbp)
    3ab5:	83 7d f8 0f          	cmpl   $0xf,-0x8(%rbp)
    3ab9:	7e ca                	jle    3a85 <create_secret+0x1b6>
    3abb:	90                   	nop
    3abc:	90                   	nop
    3abd:	c9                   	leave  
    3abe:	c3                   	ret    

0000000000003abf <worker>:
    3abf:	f3 0f 1e fa          	endbr64 
    3ac3:	55                   	push   %rbp
    3ac4:	48 89 e5             	mov    %rsp,%rbp
    3ac7:	48 83 ec 40          	sub    $0x40,%rsp
    3acb:	c7 45 fc 00 10 00 00 	movl   $0x1000,-0x4(%rbp)
    3ad2:	8b 45 fc             	mov    -0x4(%rbp),%eax
    3ad5:	48 98                	cltq   
    3ad7:	48 89 c7             	mov    %rax,%rdi
    3ada:	e8 00 00 00 00       	call   3adf <worker+0x20>
    3adf:	48 89 45 f0          	mov    %rax,-0x10(%rbp)
    3ae3:	8b 45 fc             	mov    -0x4(%rbp),%eax
    3ae6:	48 98                	cltq   
    3ae8:	48 89 c7             	mov    %rax,%rdi
    3aeb:	e8 00 00 00 00       	call   3af0 <worker+0x31>
    3af0:	48 89 45 e8          	mov    %rax,-0x18(%rbp)
    3af4:	8b 45 fc             	mov    -0x4(%rbp),%eax
    3af7:	48 98                	cltq   
    3af9:	48 89 c7             	mov    %rax,%rdi
    3afc:	e8 00 00 00 00       	call   3b01 <worker+0x42>
    3b01:	48 89 45 e0          	mov    %rax,-0x20(%rbp)
    3b05:	8b 45 fc             	mov    -0x4(%rbp),%eax
    3b08:	48 98                	cltq   
    3b0a:	48 89 c7             	mov    %rax,%rdi
    3b0d:	e8 00 00 00 00       	call   3b12 <worker+0x53>
    3b12:	48 89 45 d8          	mov    %rax,-0x28(%rbp)
    3b16:	8b 45 fc             	mov    -0x4(%rbp),%eax
    3b19:	48 98                	cltq   
    3b1b:	48 89 c2             	mov    %rax,%rdx
    3b1e:	be 00 00 00 00       	mov    $0x0,%esi
    3b23:	48 8b 05 00 00 00 00 	mov    0x0(%rip),%rax        # 3b2a <worker+0x6b>
    3b2a:	48 89 c7             	mov    %rax,%rdi
    3b2d:	e8 00 00 00 00       	call   3b32 <worker+0x73>
    3b32:	8b 45 fc             	mov    -0x4(%rbp),%eax
    3b35:	48 98                	cltq   
    3b37:	48 89 c2             	mov    %rax,%rdx
    3b3a:	be 00 00 00 00       	mov    $0x0,%esi
    3b3f:	48 8b 05 00 00 00 00 	mov    0x0(%rip),%rax        # 3b46 <worker+0x87>
    3b46:	48 89 c7             	mov    %rax,%rdi
    3b49:	e8 00 00 00 00       	call   3b4e <worker+0x8f>
    3b4e:	8b 45 fc             	mov    -0x4(%rbp),%eax
    3b51:	48 98                	cltq   
    3b53:	48 89 c2             	mov    %rax,%rdx
    3b56:	be 00 00 00 00       	mov    $0x0,%esi
    3b5b:	48 8b 05 00 00 00 00 	mov    0x0(%rip),%rax        # 3b62 <worker+0xa3>
    3b62:	48 89 c7             	mov    %rax,%rdi
    3b65:	e8 00 00 00 00       	call   3b6a <worker+0xab>
    3b6a:	8b 45 fc             	mov    -0x4(%rbp),%eax
    3b6d:	48 63 d0             	movslq %eax,%rdx
    3b70:	48 8b 45 f0          	mov    -0x10(%rbp),%rax
    3b74:	be 00 00 00 00       	mov    $0x0,%esi
    3b79:	48 89 c7             	mov    %rax,%rdi
    3b7c:	e8 00 00 00 00       	call   3b81 <worker+0xc2>
    3b81:	8b 45 fc             	mov    -0x4(%rbp),%eax
    3b84:	48 63 d0             	movslq %eax,%rdx
    3b87:	48 8b 45 e8          	mov    -0x18(%rbp),%rax
    3b8b:	be 00 00 00 00       	mov    $0x0,%esi
    3b90:	48 89 c7             	mov    %rax,%rdi
    3b93:	e8 00 00 00 00       	call   3b98 <worker+0xd9>
    3b98:	8b 45 fc             	mov    -0x4(%rbp),%eax
    3b9b:	48 63 d0             	movslq %eax,%rdx
    3b9e:	48 8b 45 e0          	mov    -0x20(%rbp),%rax
    3ba2:	be 00 00 00 00       	mov    $0x0,%esi
    3ba7:	48 89 c7             	mov    %rax,%rdi
    3baa:	e8 00 00 00 00       	call   3baf <worker+0xf0>
    3baf:	8b 45 fc             	mov    -0x4(%rbp),%eax
    3bb2:	48 63 d0             	movslq %eax,%rdx
    3bb5:	48 8b 45 d8          	mov    -0x28(%rbp),%rax
    3bb9:	be 00 00 00 00       	mov    $0x0,%esi
    3bbe:	48 89 c7             	mov    %rax,%rdi
    3bc1:	e8 00 00 00 00       	call   3bc6 <worker+0x107>
    3bc6:	48 8b 05 00 00 00 00 	mov    0x0(%rip),%rax        # 3bcd <worker+0x10e>
    3bcd:	48 8b 08             	mov    (%rax),%rcx
    3bd0:	48 8b 05 00 00 00 00 	mov    0x0(%rip),%rax        # 3bd7 <worker+0x118>
    3bd7:	48 8b 10             	mov    (%rax),%rdx
    3bda:	48 8b 05 00 00 00 00 	mov    0x0(%rip),%rax        # 3be1 <worker+0x122>
    3be1:	48 8b 00             	mov    (%rax),%rax
    3be4:	48 89 c6             	mov    %rax,%rsi
    3be7:	48 8d 05 00 00 00 00 	lea    0x0(%rip),%rax        # 3bee <worker+0x12f>
    3bee:	48 89 c7             	mov    %rax,%rdi
    3bf1:	b8 00 00 00 00       	mov    $0x0,%eax
    3bf6:	e8 00 00 00 00       	call   3bfb <worker+0x13c>
    3bfb:	8b 45 fc             	mov    -0x4(%rbp),%eax
    3bfe:	48 63 d0             	movslq %eax,%rdx
    3c01:	48 8b 05 00 00 00 00 	mov    0x0(%rip),%rax        # 3c08 <worker+0x149>
    3c08:	48 8b 00             	mov    (%rax),%rax
    3c0b:	be 00 00 00 00       	mov    $0x0,%esi
    3c10:	48 89 c7             	mov    %rax,%rdi
    3c13:	e8 00 00 00 00       	call   3c18 <worker+0x159>
    3c18:	ba 00 10 00 00       	mov    $0x1000,%edx
    3c1d:	48 8b 05 00 00 00 00 	mov    0x0(%rip),%rax        # 3c24 <worker+0x165>
    3c24:	48 89 c6             	mov    %rax,%rsi
    3c27:	48 8b 05 00 00 00 00 	mov    0x0(%rip),%rax        # 3c2e <worker+0x16f>
    3c2e:	48 89 c7             	mov    %rax,%rdi
    3c31:	e8 00 00 00 00       	call   3c36 <worker+0x177>
    3c36:	e8 00 00 00 00       	call   3c3b <worker+0x17c>
    3c3b:	48 89 45 d0          	mov    %rax,-0x30(%rbp)
    3c3f:	48 8b 05 00 00 00 00 	mov    0x0(%rip),%rax        # 3c46 <worker+0x187>
    3c46:	48 8d 40 01          	lea    0x1(%rax),%rax
    3c4a:	48 8b 15 00 00 00 00 	mov    0x0(%rip),%rdx        # 3c51 <worker+0x192>
    3c51:	0f ae 3a             	clflush (%rdx)
    3c54:	0f ae 38             	clflush (%rax)
    3c57:	e8 00 00 00 00       	call   3c5c <worker+0x19d>
    3c5c:	48 89 45 c8          	mov    %rax,-0x38(%rbp)
    3c60:	48 8b 45 c8          	mov    -0x38(%rbp),%rax
    3c64:	48 2b 45 d0          	sub    -0x30(%rbp),%rax
    3c68:	48 c1 e0 0b          	shl    $0xb,%rax
    3c6c:	48 85 c0             	test   %rax,%rax
    3c6f:	78 0b                	js     3c7c <worker+0x1bd>
    3c71:	66 0f ef c0          	pxor   %xmm0,%xmm0
    3c75:	f2 48 0f 2a c0       	cvtsi2sd %rax,%xmm0
    3c7a:	eb 19                	jmp    3c95 <worker+0x1d6>
    3c7c:	48 89 c2             	mov    %rax,%rdx
    3c7f:	48 d1 ea             	shr    %rdx
    3c82:	83 e0 01             	and    $0x1,%eax
    3c85:	48 09 c2             	or     %rax,%rdx
    3c88:	66 0f ef c0          	pxor   %xmm0,%xmm0
    3c8c:	f2 48 0f 2a c2       	cvtsi2sd %rdx,%xmm0
    3c91:	f2 0f 58 c0          	addsd  %xmm0,%xmm0
    3c95:	f2 0f 10 0d 00 00 00 	movsd  0x0(%rip),%xmm1        # 3c9d <worker+0x1de>
    3c9c:	00 
    3c9d:	f2 0f 5e c1          	divsd  %xmm1,%xmm0
    3ca1:	66 0f 2f 05 00 00 00 	comisd 0x0(%rip),%xmm0        # 3ca9 <worker+0x1ea>
    3ca8:	00 
    3ca9:	73 07                	jae    3cb2 <worker+0x1f3>
    3cab:	f2 48 0f 2c c0       	cvttsd2si %xmm0,%rax
    3cb0:	eb 1e                	jmp    3cd0 <worker+0x211>
    3cb2:	f2 0f 10 0d 00 00 00 	movsd  0x0(%rip),%xmm1        # 3cba <worker+0x1fb>
    3cb9:	00 
    3cba:	f2 0f 5c c1          	subsd  %xmm1,%xmm0
    3cbe:	f2 48 0f 2c c0       	cvttsd2si %xmm0,%rax
    3cc3:	48 ba 00 00 00 00 00 	movabs $0x8000000000000000,%rdx
    3cca:	00 00 80 
    3ccd:	48 31 d0             	xor    %rdx,%rax
    3cd0:	48 89 05 00 00 00 00 	mov    %rax,0x0(%rip)        # 3cd7 <worker+0x218>
    3cd7:	48 8b 45 c8          	mov    -0x38(%rbp),%rax
    3cdb:	48 2b 45 d0          	sub    -0x30(%rbp),%rax
    3cdf:	48 85 c0             	test   %rax,%rax
    3ce2:	78 0b                	js     3cef <worker+0x230>
    3ce4:	66 0f ef c0          	pxor   %xmm0,%xmm0
    3ce8:	f2 48 0f 2a c0       	cvtsi2sd %rax,%xmm0
    3ced:	eb 19                	jmp    3d08 <worker+0x249>
    3cef:	48 89 c2             	mov    %rax,%rdx
    3cf2:	48 d1 ea             	shr    %rdx
    3cf5:	83 e0 01             	and    $0x1,%eax
    3cf8:	48 09 c2             	or     %rax,%rdx
    3cfb:	66 0f ef c0          	pxor   %xmm0,%xmm0
    3cff:	f2 48 0f 2a c2       	cvtsi2sd %rdx,%xmm0
    3d04:	f2 0f 58 c0          	addsd  %xmm0,%xmm0
    3d08:	f2 0f 10 0d 00 00 00 	movsd  0x0(%rip),%xmm1        # 3d10 <worker+0x251>
    3d0f:	00 
    3d10:	f2 0f 5e c1          	divsd  %xmm1,%xmm0
    3d14:	66 48 0f 7e c0       	movq   %xmm0,%rax
    3d19:	66 48 0f 6e c0       	movq   %rax,%xmm0
    3d1e:	48 8d 05 00 00 00 00 	lea    0x0(%rip),%rax        # 3d25 <worker+0x266>
    3d25:	48 89 c7             	mov    %rax,%rdi
    3d28:	b8 01 00 00 00       	mov    $0x1,%eax
    3d2d:	e8 00 00 00 00       	call   3d32 <worker+0x273>
    3d32:	8b 45 fc             	mov    -0x4(%rbp),%eax
    3d35:	48 63 d0             	movslq %eax,%rdx
    3d38:	48 8b 05 00 00 00 00 	mov    0x0(%rip),%rax        # 3d3f <worker+0x280>
    3d3f:	48 8b 08             	mov    (%rax),%rcx
    3d42:	48 8b 45 f0          	mov    -0x10(%rbp),%rax
    3d46:	48 89 ce             	mov    %rcx,%rsi
    3d49:	48 89 c7             	mov    %rax,%rdi
    3d4c:	e8 00 00 00 00       	call   3d51 <worker+0x292>
    3d51:	8b 45 fc             	mov    -0x4(%rbp),%eax
    3d54:	48 63 d0             	movslq %eax,%rdx
    3d57:	48 8b 05 00 00 00 00 	mov    0x0(%rip),%rax        # 3d5e <worker+0x29f>
    3d5e:	48 8b 08             	mov    (%rax),%rcx
    3d61:	48 8b 45 e8          	mov    -0x18(%rbp),%rax
    3d65:	48 89 ce             	mov    %rcx,%rsi
    3d68:	48 89 c7             	mov    %rax,%rdi
    3d6b:	e8 00 00 00 00       	call   3d70 <worker+0x2b1>
    3d70:	48 8b 55 e0          	mov    -0x20(%rbp),%rdx
    3d74:	48 8b 45 f0          	mov    -0x10(%rbp),%rax
    3d78:	48 89 d6             	mov    %rdx,%rsi
    3d7b:	48 89 c7             	mov    %rax,%rdi
    3d7e:	e8 00 00 00 00       	call   3d83 <worker+0x2c4>
    3d83:	48 8b 55 d8          	mov    -0x28(%rbp),%rdx
    3d87:	48 8b 45 e8          	mov    -0x18(%rbp),%rax
    3d8b:	48 89 d6             	mov    %rdx,%rsi
    3d8e:	48 89 c7             	mov    %rax,%rdi
    3d91:	e8 00 00 00 00       	call   3d96 <worker+0x2d7>
    3d96:	48 8b 45 e0          	mov    -0x20(%rbp),%rax
    3d9a:	48 05 c8 08 00 00    	add    $0x8c8,%rax
    3da0:	0f b6 00             	movzbl (%rax),%eax
    3da3:	0f b6 c0             	movzbl %al,%eax
    3da6:	83 e8 02             	sub    $0x2,%eax
    3da9:	89 c6                	mov    %eax,%esi
    3dab:	48 8d 05 00 00 00 00 	lea    0x0(%rip),%rax        # 3db2 <worker+0x2f3>
    3db2:	48 89 c7             	mov    %rax,%rdi
    3db5:	b8 00 00 00 00       	mov    $0x0,%eax
    3dba:	e8 00 00 00 00       	call   3dbf <worker+0x300>
    3dbf:	48 8b 45 d8          	mov    -0x28(%rbp),%rax
    3dc3:	0f b6 00             	movzbl (%rax),%eax
    3dc6:	0f b6 c0             	movzbl %al,%eax
    3dc9:	89 c6                	mov    %eax,%esi
    3dcb:	48 8d 05 00 00 00 00 	lea    0x0(%rip),%rax        # 3dd2 <worker+0x313>
    3dd2:	48 89 c7             	mov    %rax,%rdi
    3dd5:	b8 00 00 00 00       	mov    $0x0,%eax
    3dda:	e8 00 00 00 00       	call   3ddf <worker+0x320>
    3ddf:	48 8b 45 f0          	mov    -0x10(%rbp),%rax
    3de3:	48 89 c7             	mov    %rax,%rdi
    3de6:	e8 00 00 00 00       	call   3deb <worker+0x32c>
    3deb:	48 8b 45 e8          	mov    -0x18(%rbp),%rax
    3def:	48 89 c7             	mov    %rax,%rdi
    3df2:	e8 00 00 00 00       	call   3df7 <worker+0x338>
    3df7:	90                   	nop
    3df8:	c9                   	leave  
    3df9:	c3                   	ret    

0000000000003dfa <main>:
    3dfa:	f3 0f 1e fa          	endbr64 
    3dfe:	4c 8d 54 24 08       	lea    0x8(%rsp),%r10
    3e03:	48 81 e4 00 f0 ff ff 	and    $0xfffffffffffff000,%rsp
    3e0a:	41 ff 72 f8          	push   -0x8(%r10)
    3e0e:	55                   	push   %rbp
    3e0f:	48 89 e5             	mov    %rsp,%rbp
    3e12:	41 52                	push   %r10
    3e14:	4c 8d 9c 24 00 90 ff 	lea    -0x7000(%rsp),%r11
    3e1b:	ff 
    3e1c:	48 81 ec 00 10 00 00 	sub    $0x1000,%rsp
    3e23:	48 83 0c 24 00       	orq    $0x0,(%rsp)
    3e28:	4c 39 dc             	cmp    %r11,%rsp
    3e2b:	75 ef                	jne    3e1c <main+0x22>
    3e2d:	48 81 ec e8 0f 00 00 	sub    $0xfe8,%rsp
    3e34:	89 bd 7c 8c ff ff    	mov    %edi,-0x7384(%rbp)
    3e3a:	48 89 b5 70 8c ff ff 	mov    %rsi,-0x7390(%rbp)
    3e41:	41 b9 00 00 00 00    	mov    $0x0,%r9d
    3e47:	48 8b 05 00 00 00 00 	mov    0x0(%rip),%rax        # 3e4e <main+0x54>
    3e4e:	49 89 c0             	mov    %rax,%r8
    3e51:	48 8b 05 00 00 00 00 	mov    0x0(%rip),%rax        # 3e58 <main+0x5e>
    3e58:	48 89 c1             	mov    %rax,%rcx
    3e5b:	48 8b 05 00 00 00 00 	mov    0x0(%rip),%rax        # 3e62 <main+0x68>
    3e62:	48 89 c2             	mov    %rax,%rdx
    3e65:	be 01 00 00 00       	mov    $0x1,%esi
    3e6a:	48 8d 05 00 00 00 00 	lea    0x0(%rip),%rax        # 3e71 <main+0x77>
    3e71:	48 89 c7             	mov    %rax,%rdi
    3e74:	e8 00 00 00 00       	call   3e79 <main+0x7f>
    3e79:	89 c2                	mov    %eax,%edx
    3e7b:	48 8b 05 00 00 00 00 	mov    0x0(%rip),%rax        # 3e82 <main+0x88>
    3e82:	89 10                	mov    %edx,(%rax)
    3e84:	48 8b 05 00 00 00 00 	mov    0x0(%rip),%rax        # 3e8b <main+0x91>
    3e8b:	8b 00                	mov    (%rax),%eax
    3e8d:	85 c0                	test   %eax,%eax
    3e8f:	74 33                	je     3ec4 <main+0xca>
    3e91:	48 8b 05 00 00 00 00 	mov    0x0(%rip),%rax        # 3e98 <main+0x9e>
    3e98:	8b 00                	mov    (%rax),%eax
    3e9a:	89 c1                	mov    %eax,%ecx
    3e9c:	ba 42 04 00 00       	mov    $0x442,%edx
    3ea1:	48 8d 05 00 00 00 00 	lea    0x0(%rip),%rax        # 3ea8 <main+0xae>
    3ea8:	48 89 c6             	mov    %rax,%rsi
    3eab:	48 8d 05 00 00 00 00 	lea    0x0(%rip),%rax        # 3eb2 <main+0xb8>
    3eb2:	48 89 c7             	mov    %rax,%rdi
    3eb5:	b8 00 00 00 00       	mov    $0x0,%eax
    3eba:	e8 00 00 00 00       	call   3ebf <main+0xc5>
    3ebf:	e8 00 00 00 00       	call   3ec4 <main+0xca>
    3ec4:	48 8d 05 00 00 00 00 	lea    0x0(%rip),%rax        # 3ecb <main+0xd1>
    3ecb:	48 89 c7             	mov    %rax,%rdi
    3ece:	b8 00 00 00 00       	mov    $0x0,%eax
    3ed3:	e8 00 00 00 00       	call   3ed8 <main+0xde>
    3ed8:	48 8b 05 00 00 00 00 	mov    0x0(%rip),%rax        # 3edf <main+0xe5>
    3edf:	48 8b 00             	mov    (%rax),%rax
    3ee2:	48 89 c7             	mov    %rax,%rdi
    3ee5:	e8 00 00 00 00       	call   3eea <main+0xf0>
    3eea:	48 8b 05 00 00 00 00 	mov    0x0(%rip),%rax        # 3ef1 <main+0xf7>
    3ef1:	48 8b 00             	mov    (%rax),%rax
    3ef4:	48 8b 15 00 00 00 00 	mov    0x0(%rip),%rdx        # 3efb <main+0x101>
    3efb:	48 89 d6             	mov    %rdx,%rsi
    3efe:	48 89 c7             	mov    %rax,%rdi
    3f01:	e8 00 00 00 00       	call   3f06 <main+0x10c>
    3f06:	89 c2                	mov    %eax,%edx
    3f08:	48 8b 05 00 00 00 00 	mov    0x0(%rip),%rax        # 3f0f <main+0x115>
    3f0f:	89 10                	mov    %edx,(%rax)
    3f11:	48 8b 05 00 00 00 00 	mov    0x0(%rip),%rax        # 3f18 <main+0x11e>
    3f18:	8b 00                	mov    (%rax),%eax
    3f1a:	85 c0                	test   %eax,%eax
    3f1c:	74 33                	je     3f51 <main+0x157>
    3f1e:	48 8b 05 00 00 00 00 	mov    0x0(%rip),%rax        # 3f25 <main+0x12b>
    3f25:	8b 00                	mov    (%rax),%eax
    3f27:	89 c1                	mov    %eax,%ecx
    3f29:	ba 46 04 00 00       	mov    $0x446,%edx
    3f2e:	48 8d 05 00 00 00 00 	lea    0x0(%rip),%rax        # 3f35 <main+0x13b>
    3f35:	48 89 c6             	mov    %rax,%rsi
    3f38:	48 8d 05 00 00 00 00 	lea    0x0(%rip),%rax        # 3f3f <main+0x145>
    3f3f:	48 89 c7             	mov    %rax,%rdi
    3f42:	b8 00 00 00 00       	mov    $0x0,%eax
    3f47:	e8 00 00 00 00       	call   3f4c <main+0x152>
    3f4c:	e8 00 00 00 00       	call   3f51 <main+0x157>
    3f51:	48 8b 05 00 00 00 00 	mov    0x0(%rip),%rax        # 3f58 <main+0x15e>
    3f58:	48 8b 00             	mov    (%rax),%rax
    3f5b:	48 89 c7             	mov    %rax,%rdi
    3f5e:	e8 00 00 00 00       	call   3f63 <main+0x169>
    3f63:	89 c2                	mov    %eax,%edx
    3f65:	48 8b 05 00 00 00 00 	mov    0x0(%rip),%rax        # 3f6c <main+0x172>
    3f6c:	89 10                	mov    %edx,(%rax)
    3f6e:	48 8b 05 00 00 00 00 	mov    0x0(%rip),%rax        # 3f75 <main+0x17b>
    3f75:	8b 00                	mov    (%rax),%eax
    3f77:	85 c0                	test   %eax,%eax
    3f79:	74 33                	je     3fae <main+0x1b4>
    3f7b:	48 8b 05 00 00 00 00 	mov    0x0(%rip),%rax        # 3f82 <main+0x188>
    3f82:	8b 00                	mov    (%rax),%eax
    3f84:	89 c1                	mov    %eax,%ecx
    3f86:	ba 47 04 00 00       	mov    $0x447,%edx
    3f8b:	48 8d 05 00 00 00 00 	lea    0x0(%rip),%rax        # 3f92 <main+0x198>
    3f92:	48 89 c6             	mov    %rax,%rsi
    3f95:	48 8d 05 00 00 00 00 	lea    0x0(%rip),%rax        # 3f9c <main+0x1a2>
    3f9c:	48 89 c7             	mov    %rax,%rdi
    3f9f:	b8 00 00 00 00       	mov    $0x0,%eax
    3fa4:	e8 00 00 00 00       	call   3fa9 <main+0x1af>
    3fa9:	e8 00 00 00 00       	call   3fae <main+0x1b4>
    3fae:	e8 00 00 00 00       	call   3fb3 <main+0x1b9>
    3fb3:	48 8b 05 00 00 00 00 	mov    0x0(%rip),%rax        # 3fba <main+0x1c0>
    3fba:	48 89 c7             	mov    %rax,%rdi
    3fbd:	e8 00 00 00 00       	call   3fc2 <main+0x1c8>
    3fc2:	e8 00 00 00 00       	call   3fc7 <main+0x1cd>
    3fc7:	e8 00 00 00 00       	call   3fcc <main+0x1d2>
    3fcc:	48 89 85 00 f0 ff ff 	mov    %rax,-0x1000(%rbp)
    3fd3:	e8 00 00 00 00       	call   3fd8 <main+0x1de>
    3fd8:	48 89 85 f8 ef ff ff 	mov    %rax,-0x1008(%rbp)
    3fdf:	48 c7 85 f0 ef ff ff 	movq   $0x1fe000,-0x1010(%rbp)
    3fe6:	00 e0 1f 00 
    3fea:	48 c7 85 e8 ef ff ff 	movq   $0x0,-0x1018(%rbp)
    3ff1:	00 00 00 00 
    3ff5:	48 c7 85 e0 ef ff ff 	movq   $0x1000,-0x1020(%rbp)
    3ffc:	00 10 00 00 
    4000:	48 8b 05 00 00 00 00 	mov    0x0(%rip),%rax        # 4007 <main+0x20d>
    4007:	48 89 85 d8 ef ff ff 	mov    %rax,-0x1028(%rbp)
    400e:	48 8b 05 00 00 00 00 	mov    0x0(%rip),%rax        # 4015 <main+0x21b>
    4015:	48 89 85 d0 ef ff ff 	mov    %rax,-0x1030(%rbp)
    401c:	48 8b 95 00 f0 ff ff 	mov    -0x1000(%rbp),%rdx
    4023:	48 8b 85 f0 ef ff ff 	mov    -0x1010(%rbp),%rax
    402a:	48 01 d0             	add    %rdx,%rax
    402d:	48 89 85 c8 ef ff ff 	mov    %rax,-0x1038(%rbp)
    4034:	48 8b 85 f8 ef ff ff 	mov    -0x1008(%rbp),%rax
    403b:	48 89 85 c0 ef ff ff 	mov    %rax,-0x1040(%rbp)
    4042:	48 c7 85 10 d0 ff ff 	movq   $0x0,-0x2ff0(%rbp)
    4049:	00 00 00 00 
    404d:	48 c7 85 18 d0 ff ff 	movq   $0x0,-0x2fe8(%rbp)
    4054:	00 00 00 00 
    4058:	48 8d 95 20 d0 ff ff 	lea    -0x2fe0(%rbp),%rdx
    405f:	b8 00 00 00 00       	mov    $0x0,%eax
    4064:	b9 fe 01 00 00       	mov    $0x1fe,%ecx
    4069:	48 89 d7             	mov    %rdx,%rdi
    406c:	f3 48 ab             	rep stos %rax,%es:(%rdi)
    406f:	48 c7 85 10 c0 ff ff 	movq   $0x0,-0x3ff0(%rbp)
    4076:	00 00 00 00 
    407a:	48 c7 85 18 c0 ff ff 	movq   $0x0,-0x3fe8(%rbp)
    4081:	00 00 00 00 
    4085:	48 8d 95 20 c0 ff ff 	lea    -0x3fe0(%rbp),%rdx
    408c:	b8 00 00 00 00       	mov    $0x0,%eax
    4091:	b9 fe 01 00 00       	mov    $0x1fe,%ecx
    4096:	48 89 d7             	mov    %rdx,%rdi
    4099:	f3 48 ab             	rep stos %rax,%es:(%rdi)
    409c:	48 c7 85 10 b0 ff ff 	movq   $0x0,-0x4ff0(%rbp)
    40a3:	00 00 00 00 
    40a7:	48 c7 85 18 b0 ff ff 	movq   $0x0,-0x4fe8(%rbp)
    40ae:	00 00 00 00 
    40b2:	48 8d 95 20 b0 ff ff 	lea    -0x4fe0(%rbp),%rdx
    40b9:	b8 00 00 00 00       	mov    $0x0,%eax
    40be:	b9 fe 01 00 00       	mov    $0x1fe,%ecx
    40c3:	48 89 d7             	mov    %rdx,%rdi
    40c6:	f3 48 ab             	rep stos %rax,%es:(%rdi)
    40c9:	48 c7 85 10 a0 ff ff 	movq   $0x0,-0x5ff0(%rbp)
    40d0:	00 00 00 00 
    40d4:	48 c7 85 18 a0 ff ff 	movq   $0x0,-0x5fe8(%rbp)
    40db:	00 00 00 00 
    40df:	48 8d 95 20 a0 ff ff 	lea    -0x5fe0(%rbp),%rdx
    40e6:	b8 00 00 00 00       	mov    $0x0,%eax
    40eb:	b9 fe 01 00 00       	mov    $0x1fe,%ecx
    40f0:	48 89 d7             	mov    %rdx,%rdi
    40f3:	f3 48 ab             	rep stos %rax,%es:(%rdi)
    40f6:	48 8d 85 10 a0 ff ff 	lea    -0x5ff0(%rbp),%rax
    40fd:	ba 00 10 00 00       	mov    $0x1000,%edx
    4102:	be 00 00 00 00       	mov    $0x0,%esi
    4107:	48 89 c7             	mov    %rax,%rdi
    410a:	e8 00 00 00 00       	call   410f <main+0x315>
    410f:	48 8d 85 10 d0 ff ff 	lea    -0x2ff0(%rbp),%rax
    4116:	48 89 85 c8 ef ff ff 	mov    %rax,-0x1038(%rbp)
    411d:	48 8b 85 f8 ef ff ff 	mov    -0x1008(%rbp),%rax
    4124:	48 2b 85 d0 ef ff ff 	sub    -0x1030(%rbp),%rax
    412b:	48 2d c3 02 00 00    	sub    $0x2c3,%rax
    4131:	48 89 85 b8 ef ff ff 	mov    %rax,-0x1048(%rbp)
    4138:	48 8b 85 00 f0 ff ff 	mov    -0x1000(%rbp),%rax
    413f:	48 89 c6             	mov    %rax,%rsi
    4142:	48 8d 05 00 00 00 00 	lea    0x0(%rip),%rax        # 4149 <main+0x34f>
    4149:	48 89 c7             	mov    %rax,%rdi
    414c:	b8 00 00 00 00       	mov    $0x0,%eax
    4151:	e8 00 00 00 00       	call   4156 <main+0x35c>
    4156:	48 8b 85 f8 ef ff ff 	mov    -0x1008(%rbp),%rax
    415d:	48 89 c6             	mov    %rax,%rsi
    4160:	48 8d 05 00 00 00 00 	lea    0x0(%rip),%rax        # 4167 <main+0x36d>
    4167:	48 89 c7             	mov    %rax,%rdi
    416a:	b8 00 00 00 00       	mov    $0x0,%eax
    416f:	e8 00 00 00 00       	call   4174 <main+0x37a>
    4174:	e8 00 00 00 00       	call   4179 <main+0x37f>
    4179:	48 89 85 b0 ef ff ff 	mov    %rax,-0x1050(%rbp)
    4180:	48 8d 85 10 d0 ff ff 	lea    -0x2ff0(%rbp),%rax
    4187:	48 8d 95 10 c0 ff ff 	lea    -0x3ff0(%rbp),%rdx
    418e:	49 c7 c2 00 01 00 00 	mov    $0x100,%r10
    4195:	48 89 c7             	mov    %rax,%rdi
    4198:	48 8b b5 f8 ef ff ff 	mov    -0x1008(%rbp),%rsi
    419f:	4c 89 d1             	mov    %r10,%rcx
    41a2:	f3 48 a5             	rep movsq %ds:(%rsi),%es:(%rdi)
    41a5:	48 89 d7             	mov    %rdx,%rdi
    41a8:	48 8d 35 e6 ff ff ff 	lea    -0x1a(%rip),%rsi        # 4195 <main+0x39b>
    41af:	4c 89 d1             	mov    %r10,%rcx
    41b2:	f3 48 a5             	rep movsq %ds:(%rsi),%es:(%rdi)
    41b5:	48 8b 05 00 00 00 00 	mov    0x0(%rip),%rax        # 41bc <main+0x3c2>
    41bc:	48 8d 80 b7 03 00 00 	lea    0x3b7(%rax),%rax
    41c3:	48 89 85 a8 ef ff ff 	mov    %rax,-0x1058(%rbp)
    41ca:	48 8b 85 f8 ef ff ff 	mov    -0x1008(%rbp),%rax
    41d1:	48 2b 85 a8 ef ff ff 	sub    -0x1058(%rbp),%rax
    41d8:	48 89 85 a8 ef ff ff 	mov    %rax,-0x1058(%rbp)
    41df:	48 8b 95 f8 ef ff ff 	mov    -0x1008(%rbp),%rdx
    41e6:	48 8b 85 a8 ef ff ff 	mov    -0x1058(%rbp),%rax
    41ed:	48 89 c6             	mov    %rax,%rsi
    41f0:	48 8d 05 00 00 00 00 	lea    0x0(%rip),%rax        # 41f7 <main+0x3fd>
    41f7:	48 89 c7             	mov    %rax,%rdi
    41fa:	b8 00 00 00 00       	mov    $0x0,%eax
    41ff:	e8 00 00 00 00       	call   4204 <main+0x40a>
    4204:	48 8d 85 10 90 ff ff 	lea    -0x6ff0(%rbp),%rax
    420b:	ba 00 10 00 00       	mov    $0x1000,%edx
    4210:	be 03 00 00 00       	mov    $0x3,%esi
    4215:	48 89 c7             	mov    %rax,%rdi
    4218:	e8 00 00 00 00       	call   421d <main+0x423>
    421d:	e8 00 00 00 00       	call   4222 <main+0x428>
    4222:	48 89 85 a0 ef ff ff 	mov    %rax,-0x1060(%rbp)
    4229:	48 8d 85 10 90 ff ff 	lea    -0x6ff0(%rbp),%rax
    4230:	49 c7 c2 00 01 00 00 	mov    $0x100,%r10
    4237:	48 89 c7             	mov    %rax,%rdi
    423a:	e8 00 00 00 00       	call   423f <main+0x445>
    423f:	48 89 85 b0 ef ff ff 	mov    %rax,-0x1050(%rbp)
    4246:	48 8b 85 f8 ef ff ff 	mov    -0x1008(%rbp),%rax
    424d:	48 89 c6             	mov    %rax,%rsi
    4250:	4c 89 d1             	mov    %r10,%rcx
    4253:	f3 48 a5             	rep movsq %ds:(%rsi),%es:(%rdi)
    4256:	48 8d 35 ee ff ff ff 	lea    -0x12(%rip),%rsi        # 424b <main+0x451>
    425d:	4c 89 d1             	mov    %r10,%rcx
    4260:	f3 48 a5             	rep movsq %ds:(%rsi),%es:(%rdi)
    4263:	c7 85 0c f0 ff ff 00 	movl   $0x0,-0xff4(%rbp)
    426a:	00 00 00 
    426d:	eb 26                	jmp    4295 <main+0x49b>
    426f:	48 8d 95 10 90 ff ff 	lea    -0x6ff0(%rbp),%rdx
    4276:	8b 85 0c f0 ff ff    	mov    -0xff4(%rbp),%eax
    427c:	48 98                	cltq   
    427e:	48 01 d0             	add    %rdx,%rax
    4281:	48 89 c7             	mov    %rax,%rdi
    4284:	b8 00 00 00 00       	mov    $0x0,%eax
    4289:	e8 00 00 00 00       	call   428e <main+0x494>
    428e:	83 85 0c f0 ff ff 01 	addl   $0x1,-0xff4(%rbp)
    4295:	81 bd 0c f0 ff ff bb 	cmpl   $0x2bb,-0xff4(%rbp)
    429c:	02 00 00 
    429f:	7e ce                	jle    426f <main+0x475>
    42a1:	e8 00 00 00 00       	call   42a6 <main+0x4ac>
    42a6:	48 89 85 a0 ef ff ff 	mov    %rax,-0x1060(%rbp)
    42ad:	48 8b 85 a0 ef ff ff 	mov    -0x1060(%rbp),%rax
    42b4:	48 2b 85 b0 ef ff ff 	sub    -0x1050(%rbp),%rax
    42bb:	48 85 c0             	test   %rax,%rax
    42be:	78 0b                	js     42cb <main+0x4d1>
    42c0:	66 0f ef c0          	pxor   %xmm0,%xmm0
    42c4:	f2 48 0f 2a c0       	cvtsi2sd %rax,%xmm0
    42c9:	eb 19                	jmp    42e4 <main+0x4ea>
    42cb:	48 89 c2             	mov    %rax,%rdx
    42ce:	48 d1 ea             	shr    %rdx
    42d1:	83 e0 01             	and    $0x1,%eax
    42d4:	48 09 c2             	or     %rax,%rdx
    42d7:	66 0f ef c0          	pxor   %xmm0,%xmm0
    42db:	f2 48 0f 2a c2       	cvtsi2sd %rdx,%xmm0
    42e0:	f2 0f 58 c0          	addsd  %xmm0,%xmm0
    42e4:	f2 0f 10 0d 00 00 00 	movsd  0x0(%rip),%xmm1        # 42ec <main+0x4f2>
    42eb:	00 
    42ec:	f2 0f 5e c1          	divsd  %xmm1,%xmm0
    42f0:	66 0f 2f 05 00 00 00 	comisd 0x0(%rip),%xmm0        # 42f8 <main+0x4fe>
    42f7:	00 
    42f8:	73 07                	jae    4301 <main+0x507>
    42fa:	f2 48 0f 2c c0       	cvttsd2si %xmm0,%rax
    42ff:	eb 1e                	jmp    431f <main+0x525>
    4301:	f2 0f 10 0d 00 00 00 	movsd  0x0(%rip),%xmm1        # 4309 <main+0x50f>
    4308:	00 
    4309:	f2 0f 5c c1          	subsd  %xmm1,%xmm0
    430d:	f2 48 0f 2c c0       	cvttsd2si %xmm0,%rax
    4312:	48 ba 00 00 00 00 00 	movabs $0x8000000000000000,%rdx
    4319:	00 00 80 
    431c:	48 31 d0             	xor    %rdx,%rax
    431f:	48 89 05 00 00 00 00 	mov    %rax,0x0(%rip)        # 4326 <main+0x52c>
    4326:	48 8b 85 a0 ef ff ff 	mov    -0x1060(%rbp),%rax
    432d:	48 2b 85 b0 ef ff ff 	sub    -0x1050(%rbp),%rax
    4334:	48 85 c0             	test   %rax,%rax
    4337:	78 0b                	js     4344 <main+0x54a>
    4339:	66 0f ef c0          	pxor   %xmm0,%xmm0
    433d:	f2 48 0f 2a c0       	cvtsi2sd %rax,%xmm0
    4342:	eb 19                	jmp    435d <main+0x563>
    4344:	48 89 c2             	mov    %rax,%rdx
    4347:	48 d1 ea             	shr    %rdx
    434a:	83 e0 01             	and    $0x1,%eax
    434d:	48 09 c2             	or     %rax,%rdx
    4350:	66 0f ef c0          	pxor   %xmm0,%xmm0
    4354:	f2 48 0f 2a c2       	cvtsi2sd %rdx,%xmm0
    4359:	f2 0f 58 c0          	addsd  %xmm0,%xmm0
    435d:	f2 0f 10 0d 00 00 00 	movsd  0x0(%rip),%xmm1        # 4365 <main+0x56b>
    4364:	00 
    4365:	f2 0f 5e c1          	divsd  %xmm1,%xmm0
    4369:	66 48 0f 7e c0       	movq   %xmm0,%rax
    436e:	66 48 0f 6e c0       	movq   %rax,%xmm0
    4373:	48 8d 05 00 00 00 00 	lea    0x0(%rip),%rax        # 437a <main+0x580>
    437a:	48 89 c7             	mov    %rax,%rdi
    437d:	b8 01 00 00 00       	mov    $0x1,%eax
    4382:	e8 00 00 00 00       	call   4387 <main+0x58d>
    4387:	e8 00 00 00 00       	call   438c <main+0x592>
    438c:	e8 00 00 00 00       	call   4391 <main+0x597>
    4391:	48 89 85 b0 ef ff ff 	mov    %rax,-0x1050(%rbp)
    4398:	48 8b 05 00 00 00 00 	mov    0x0(%rip),%rax        # 439f <main+0x5a5>
    439f:	48 89 85 98 ef ff ff 	mov    %rax,-0x1068(%rbp)
    43a6:	48 8b 8d 98 ef ff ff 	mov    -0x1068(%rbp),%rcx
    43ad:	48 8d 85 10 a0 ff ff 	lea    -0x5ff0(%rbp),%rax
    43b4:	ba 00 10 00 00       	mov    $0x1000,%edx
    43b9:	48 89 ce             	mov    %rcx,%rsi
    43bc:	48 89 c7             	mov    %rax,%rdi
    43bf:	e8 00 00 00 00       	call   43c4 <main+0x5ca>
    43c4:	c7 85 0c f0 ff ff 00 	movl   $0x0,-0xff4(%rbp)
    43cb:	00 00 00 
    43ce:	eb 26                	jmp    43f6 <main+0x5fc>
    43d0:	48 8d 95 10 a0 ff ff 	lea    -0x5ff0(%rbp),%rdx
    43d7:	8b 85 0c f0 ff ff    	mov    -0xff4(%rbp),%eax
    43dd:	48 98                	cltq   
    43df:	48 01 d0             	add    %rdx,%rax
    43e2:	48 89 c7             	mov    %rax,%rdi
    43e5:	b8 00 00 00 00       	mov    $0x0,%eax
    43ea:	e8 00 00 00 00       	call   43ef <main+0x5f5>
    43ef:	83 85 0c f0 ff ff 01 	addl   $0x1,-0xff4(%rbp)
    43f6:	83 bd 0c f0 ff ff 1f 	cmpl   $0x1f,-0xff4(%rbp)
    43fd:	7e d1                	jle    43d0 <main+0x5d6>
    43ff:	e8 00 00 00 00       	call   4404 <main+0x60a>
    4404:	48 89 85 a0 ef ff ff 	mov    %rax,-0x1060(%rbp)
    440b:	c7 85 0c f0 ff ff 00 	movl   $0x0,-0xff4(%rbp)
    4412:	00 00 00 
    4415:	eb 33                	jmp    444a <main+0x650>
    4417:	48 8b 95 98 ef ff ff 	mov    -0x1068(%rbp),%rdx
    441e:	8b 85 0c f0 ff ff    	mov    -0xff4(%rbp),%eax
    4424:	48 98                	cltq   
    4426:	0f b6 04 02          	movzbl (%rdx,%rax,1),%eax
    442a:	0f b6 c0             	movzbl %al,%eax
    442d:	89 c6                	mov    %eax,%esi
    442f:	48 8d 05 00 00 00 00 	lea    0x0(%rip),%rax        # 4436 <main+0x63c>
    4436:	48 89 c7             	mov    %rax,%rdi
    4439:	b8 00 00 00 00       	mov    $0x0,%eax
    443e:	e8 00 00 00 00       	call   4443 <main+0x649>
    4443:	83 85 0c f0 ff ff 01 	addl   $0x1,-0xff4(%rbp)
    444a:	8b 85 0c f0 ff ff    	mov    -0xff4(%rbp),%eax
    4450:	83 f8 1f             	cmp    $0x1f,%eax
    4453:	76 c2                	jbe    4417 <main+0x61d>
    4455:	be 20 00 00 00       	mov    $0x20,%esi
    445a:	48 8d 05 00 00 00 00 	lea    0x0(%rip),%rax        # 4461 <main+0x667>
    4461:	48 89 c7             	mov    %rax,%rdi
    4464:	b8 00 00 00 00       	mov    $0x0,%eax
    4469:	e8 00 00 00 00       	call   446e <main+0x674>
    446e:	48 c7 85 90 ef ff ff 	movq   $0x1,-0x1070(%rbp)
    4475:	01 00 00 00 
    4479:	48 c7 85 88 ef ff ff 	movq   $0x1,-0x1078(%rbp)
    4480:	01 00 00 00 
    4484:	e8 00 00 00 00       	call   4489 <main+0x68f>
    4489:	48 89 85 b0 ef ff ff 	mov    %rax,-0x1050(%rbp)
    4490:	48 8b 05 00 00 00 00 	mov    0x0(%rip),%rax        # 4497 <main+0x69d>
    4497:	48 8b 00             	mov    (%rax),%rax
    449a:	48 8b 8d a0 ef ff ff 	mov    -0x1060(%rbp),%rcx
    44a1:	48 8b 95 b0 ef ff ff 	mov    -0x1050(%rbp),%rdx
    44a8:	48 8d b5 0c 90 ff ff 	lea    -0x6ff4(%rbp),%rsi
    44af:	48 8b 3d 00 00 00 00 	mov    0x0(%rip),%rdi        # 44b6 <main+0x6bc>
    44b6:	49 89 f8             	mov    %rdi,%r8
    44b9:	48 89 c7             	mov    %rax,%rdi
    44bc:	e8 00 00 00 00       	call   44c1 <main+0x6c7>
    44c1:	89 85 84 ef ff ff    	mov    %eax,-0x107c(%rbp)
    44c7:	e8 00 00 00 00       	call   44cc <main+0x6d2>
    44cc:	48 89 85 a0 ef ff ff 	mov    %rax,-0x1060(%rbp)
    44d3:	48 8b 85 a0 ef ff ff 	mov    -0x1060(%rbp),%rax
    44da:	48 2b 85 b0 ef ff ff 	sub    -0x1050(%rbp),%rax
    44e1:	48 85 c0             	test   %rax,%rax
    44e4:	78 0b                	js     44f1 <main+0x6f7>
    44e6:	66 0f ef c0          	pxor   %xmm0,%xmm0
    44ea:	f2 48 0f 2a c0       	cvtsi2sd %rax,%xmm0
    44ef:	eb 19                	jmp    450a <main+0x710>
    44f1:	48 89 c2             	mov    %rax,%rdx
    44f4:	48 d1 ea             	shr    %rdx
    44f7:	83 e0 01             	and    $0x1,%eax
    44fa:	48 09 c2             	or     %rax,%rdx
    44fd:	66 0f ef c0          	pxor   %xmm0,%xmm0
    4501:	f2 48 0f 2a c2       	cvtsi2sd %rdx,%xmm0
    4506:	f2 0f 58 c0          	addsd  %xmm0,%xmm0
    450a:	f2 0f 10 0d 00 00 00 	movsd  0x0(%rip),%xmm1        # 4512 <main+0x718>
    4511:	00 
    4512:	f2 0f 5e c1          	divsd  %xmm1,%xmm0
    4516:	f2 0f 2c c0          	cvttsd2si %xmm0,%eax
    451a:	89 85 0c 90 ff ff    	mov    %eax,-0x6ff4(%rbp)
    4520:	8b 85 0c 90 ff ff    	mov    -0x6ff4(%rbp),%eax
    4526:	89 c6                	mov    %eax,%esi
    4528:	48 8d 05 00 00 00 00 	lea    0x0(%rip),%rax        # 452f <main+0x735>
    452f:	48 89 c7             	mov    %rax,%rdi
    4532:	b8 00 00 00 00       	mov    $0x0,%eax
    4537:	e8 00 00 00 00       	call   453c <main+0x742>
    453c:	48 8d 85 10 d0 ff ff 	lea    -0x2ff0(%rbp),%rax
    4543:	48 89 c6             	mov    %rax,%rsi
    4546:	48 8d 05 00 00 00 00 	lea    0x0(%rip),%rax        # 454d <main+0x753>
    454d:	48 89 c7             	mov    %rax,%rdi
    4550:	b8 00 00 00 00       	mov    $0x0,%eax
    4555:	e8 00 00 00 00       	call   455a <main+0x760>
    455a:	48 8d 85 10 c0 ff ff 	lea    -0x3ff0(%rbp),%rax
    4561:	48 89 c6             	mov    %rax,%rsi
    4564:	48 8d 05 00 00 00 00 	lea    0x0(%rip),%rax        # 456b <main+0x771>
    456b:	48 89 c7             	mov    %rax,%rdi
    456e:	b8 00 00 00 00       	mov    $0x0,%eax
    4573:	e8 00 00 00 00       	call   4578 <main+0x77e>
    4578:	0f b6 85 cc d2 ff ff 	movzbl -0x2d34(%rbp),%eax
    457f:	0f b6 c0             	movzbl %al,%eax
    4582:	89 c6                	mov    %eax,%esi
    4584:	48 8d 05 00 00 00 00 	lea    0x0(%rip),%rax        # 458b <main+0x791>
    458b:	48 89 c7             	mov    %rax,%rdi
    458e:	b8 00 00 00 00       	mov    $0x0,%eax
    4593:	e8 00 00 00 00       	call   4598 <main+0x79e>
    4598:	0f b6 85 cc c2 ff ff 	movzbl -0x3d34(%rbp),%eax
    459f:	0f b6 c0             	movzbl %al,%eax
    45a2:	89 c6                	mov    %eax,%esi
    45a4:	48 8d 05 00 00 00 00 	lea    0x0(%rip),%rax        # 45ab <main+0x7b1>
    45ab:	48 89 c7             	mov    %rax,%rdi
    45ae:	b8 00 00 00 00       	mov    $0x0,%eax
    45b3:	e8 00 00 00 00       	call   45b8 <main+0x7be>
    45b8:	c6 85 cc d2 ff ff aa 	movb   $0xaa,-0x2d34(%rbp)
    45bf:	c6 85 cc c2 ff ff bb 	movb   $0xbb,-0x3d34(%rbp)
    45c6:	48 8b 05 00 00 00 00 	mov    0x0(%rip),%rax        # 45cd <main+0x7d3>
    45cd:	c6 80 bc 02 00 00 dd 	movb   $0xdd,0x2bc(%rax)
    45d4:	be 02 00 00 00       	mov    $0x2,%esi
    45d9:	48 8d 05 00 00 00 00 	lea    0x0(%rip),%rax        # 45e0 <main+0x7e6>
    45e0:	48 89 c7             	mov    %rax,%rdi
    45e3:	b8 00 00 00 00       	mov    $0x0,%eax
    45e8:	e8 00 00 00 00       	call   45ed <main+0x7f3>
    45ed:	48 8b 15 00 00 00 00 	mov    0x0(%rip),%rdx        # 45f4 <main+0x7fa>
    45f4:	89 02                	mov    %eax,(%rdx)
    45f6:	48 8b 05 00 00 00 00 	mov    0x0(%rip),%rax        # 45fd <main+0x803>
    45fd:	8b 00                	mov    (%rax),%eax
    45ff:	89 c6                	mov    %eax,%esi
    4601:	48 8d 05 00 00 00 00 	lea    0x0(%rip),%rax        # 4608 <main+0x80e>
    4608:	48 89 c7             	mov    %rax,%rdi
    460b:	b8 00 00 00 00       	mov    $0x0,%eax
    4610:	e8 00 00 00 00       	call   4615 <main+0x81b>
    4615:	48 8b 05 00 00 00 00 	mov    0x0(%rip),%rax        # 461c <main+0x822>
    461c:	8b 00                	mov    (%rax),%eax
    461e:	48 8d 8d 10 d0 ff ff 	lea    -0x2ff0(%rbp),%rcx
    4625:	ba 00 10 00 00       	mov    $0x1000,%edx
    462a:	48 89 ce             	mov    %rcx,%rsi
    462d:	89 c7                	mov    %eax,%edi
    462f:	e8 00 00 00 00       	call   4634 <main+0x83a>
    4634:	48 8b 05 00 00 00 00 	mov    0x0(%rip),%rax        # 463b <main+0x841>
    463b:	8b 00                	mov    (%rax),%eax
    463d:	89 c7                	mov    %eax,%edi
    463f:	e8 00 00 00 00       	call   4644 <main+0x84a>
    4644:	be 02 00 00 00       	mov    $0x2,%esi
    4649:	48 8d 05 00 00 00 00 	lea    0x0(%rip),%rax        # 4650 <main+0x856>
    4650:	48 89 c7             	mov    %rax,%rdi
    4653:	b8 00 00 00 00       	mov    $0x0,%eax
    4658:	e8 00 00 00 00       	call   465d <main+0x863>
    465d:	48 8b 15 00 00 00 00 	mov    0x0(%rip),%rdx        # 4664 <main+0x86a>
    4664:	89 02                	mov    %eax,(%rdx)
    4666:	48 8b 05 00 00 00 00 	mov    0x0(%rip),%rax        # 466d <main+0x873>
    466d:	8b 00                	mov    (%rax),%eax
    466f:	89 c6                	mov    %eax,%esi
    4671:	48 8d 05 00 00 00 00 	lea    0x0(%rip),%rax        # 4678 <main+0x87e>
    4678:	48 89 c7             	mov    %rax,%rdi
    467b:	b8 00 00 00 00       	mov    $0x0,%eax
    4680:	e8 00 00 00 00       	call   4685 <main+0x88b>
    4685:	48 8b 05 00 00 00 00 	mov    0x0(%rip),%rax        # 468c <main+0x892>
    468c:	8b 00                	mov    (%rax),%eax
    468e:	48 8d 8d 10 c0 ff ff 	lea    -0x3ff0(%rbp),%rcx
    4695:	ba 00 10 00 00       	mov    $0x1000,%edx
    469a:	48 89 ce             	mov    %rcx,%rsi
    469d:	89 c7                	mov    %eax,%edi
    469f:	e8 00 00 00 00       	call   46a4 <main+0x8aa>
    46a4:	48 8b 05 00 00 00 00 	mov    0x0(%rip),%rax        # 46ab <main+0x8b1>
    46ab:	8b 00                	mov    (%rax),%eax
    46ad:	89 c7                	mov    %eax,%edi
    46af:	e8 00 00 00 00       	call   46b4 <main+0x8ba>
    46b4:	be 02 00 00 00       	mov    $0x2,%esi
    46b9:	48 8d 05 00 00 00 00 	lea    0x0(%rip),%rax        # 46c0 <main+0x8c6>
    46c0:	48 89 c7             	mov    %rax,%rdi
    46c3:	b8 00 00 00 00       	mov    $0x0,%eax
    46c8:	e8 00 00 00 00       	call   46cd <main+0x8d3>
    46cd:	48 8b 15 00 00 00 00 	mov    0x0(%rip),%rdx        # 46d4 <main+0x8da>
    46d4:	89 02                	mov    %eax,(%rdx)
    46d6:	48 8b 05 00 00 00 00 	mov    0x0(%rip),%rax        # 46dd <main+0x8e3>
    46dd:	8b 00                	mov    (%rax),%eax
    46df:	89 c6                	mov    %eax,%esi
    46e1:	48 8d 05 00 00 00 00 	lea    0x0(%rip),%rax        # 46e8 <main+0x8ee>
    46e8:	48 89 c7             	mov    %rax,%rdi
    46eb:	b8 00 00 00 00       	mov    $0x0,%eax
    46f0:	e8 00 00 00 00       	call   46f5 <main+0x8fb>
    46f5:	48 8b 05 00 00 00 00 	mov    0x0(%rip),%rax        # 46fc <main+0x902>
    46fc:	8b 00                	mov    (%rax),%eax
    46fe:	ba 00 10 00 00       	mov    $0x1000,%edx
    4703:	48 8b 0d 00 00 00 00 	mov    0x0(%rip),%rcx        # 470a <main+0x910>
    470a:	48 89 ce             	mov    %rcx,%rsi
    470d:	89 c7                	mov    %eax,%edi
    470f:	e8 00 00 00 00       	call   4714 <main+0x91a>
    4714:	48 8b 05 00 00 00 00 	mov    0x0(%rip),%rax        # 471b <main+0x921>
    471b:	8b 00                	mov    (%rax),%eax
    471d:	89 c7                	mov    %eax,%edi
    471f:	e8 00 00 00 00       	call   4724 <main+0x92a>
    4724:	48 8d 05 00 00 00 00 	lea    0x0(%rip),%rax        # 472b <main+0x931>
    472b:	48 89 c7             	mov    %rax,%rdi
    472e:	b8 00 00 00 00       	mov    $0x0,%eax
    4733:	e8 00 00 00 00       	call   4738 <main+0x93e>
    4738:	48 8b 05 00 00 00 00 	mov    0x0(%rip),%rax        # 473f <main+0x945>
    473f:	48 8b 00             	mov    (%rax),%rax
    4742:	48 89 c7             	mov    %rax,%rdi
    4745:	e8 00 00 00 00       	call   474a <main+0x950>
    474a:	48 8d 85 88 8c ff ff 	lea    -0x7378(%rbp),%rax
    4751:	b9 00 00 00 00       	mov    $0x0,%ecx
    4756:	48 8b 15 00 00 00 00 	mov    0x0(%rip),%rdx        # 475d <main+0x963>
    475d:	be 00 00 00 00       	mov    $0x0,%esi
    4762:	48 89 c7             	mov    %rax,%rdi
    4765:	e8 00 00 00 00       	call   476a <main+0x970>
    476a:	48 8b 85 88 8c ff ff 	mov    -0x7378(%rbp),%rax
    4771:	be 00 00 00 00       	mov    $0x0,%esi
    4776:	48 89 c7             	mov    %rax,%rdi
    4779:	e8 00 00 00 00       	call   477e <main+0x984>
    477e:	e8 00 00 00 00       	call   4783 <main+0x989>
    4783:	89 85 80 ef ff ff    	mov    %eax,-0x1080(%rbp)
    4789:	8b 85 80 ef ff ff    	mov    -0x1080(%rbp),%eax
    478f:	89 c6                	mov    %eax,%esi
    4791:	48 8d 05 00 00 00 00 	lea    0x0(%rip),%rax        # 4798 <main+0x99e>
    4798:	48 89 c7             	mov    %rax,%rdi
    479b:	b8 00 00 00 00       	mov    $0x0,%eax
    47a0:	e8 00 00 00 00       	call   47a5 <main+0x9ab>
    47a5:	8b 85 80 ef ff ff    	mov    -0x1080(%rbp),%eax
    47ab:	48 98                	cltq   
    47ad:	48 89 85 78 ef ff ff 	mov    %rax,-0x1088(%rbp)
    47b4:	bf 01 00 00 00       	mov    $0x1,%edi
    47b9:	e8 00 00 00 00       	call   47be <main+0x9c4>
    47be:	c6 85 cc b2 ff ff cc 	movb   $0xcc,-0x4d34(%rbp)
    47c5:	48 8b 05 00 00 00 00 	mov    0x0(%rip),%rax        # 47cc <main+0x9d2>
    47cc:	48 8b 00             	mov    (%rax),%rax
    47cf:	88 85 10 b0 ff ff    	mov    %al,-0x4ff0(%rbp)
    47d5:	48 8b 05 00 00 00 00 	mov    0x0(%rip),%rax        # 47dc <main+0x9e2>
    47dc:	88 85 11 b0 ff ff    	mov    %al,-0x4fef(%rbp)
    47e2:	48 8b 85 e0 ef ff ff 	mov    -0x1020(%rbp),%rax
    47e9:	88 85 12 b0 ff ff    	mov    %al,-0x4fee(%rbp)
    47ef:	48 8b 85 78 ef ff ff 	mov    -0x1088(%rbp),%rax
    47f6:	88 85 13 b0 ff ff    	mov    %al,-0x4fed(%rbp)
    47fc:	e8 00 00 00 00       	call   4801 <main+0xa07>
    4801:	48 89 85 b0 ef ff ff 	mov    %rax,-0x1050(%rbp)
    4808:	be 02 00 00 00       	mov    $0x2,%esi
    480d:	48 8d 05 00 00 00 00 	lea    0x0(%rip),%rax        # 4814 <main+0xa1a>
    4814:	48 89 c7             	mov    %rax,%rdi
    4817:	b8 00 00 00 00       	mov    $0x0,%eax
    481c:	e8 00 00 00 00       	call   4821 <main+0xa27>
    4821:	48 8b 15 00 00 00 00 	mov    0x0(%rip),%rdx        # 4828 <main+0xa2e>
    4828:	89 02                	mov    %eax,(%rdx)
    482a:	e8 00 00 00 00       	call   482f <main+0xa35>
    482f:	48 89 85 b0 ef ff ff 	mov    %rax,-0x1050(%rbp)
    4836:	48 8b 05 00 00 00 00 	mov    0x0(%rip),%rax        # 483d <main+0xa43>
    483d:	8b 00                	mov    (%rax),%eax
    483f:	48 8d 8d 10 b0 ff ff 	lea    -0x4ff0(%rbp),%rcx
    4846:	ba 00 10 00 00       	mov    $0x1000,%edx
    484b:	48 89 ce             	mov    %rcx,%rsi
    484e:	89 c7                	mov    %eax,%edi
    4850:	e8 00 00 00 00       	call   4855 <main+0xa5b>
    4855:	e8 00 00 00 00       	call   485a <main+0xa60>
    485a:	48 89 85 a0 ef ff ff 	mov    %rax,-0x1060(%rbp)
    4861:	48 8b 85 a0 ef ff ff 	mov    -0x1060(%rbp),%rax
    4868:	48 2b 85 b0 ef ff ff 	sub    -0x1050(%rbp),%rax
    486f:	48 89 c2             	mov    %rax,%rdx
    4872:	48 89 d0             	mov    %rdx,%rax
    4875:	48 c1 e0 02          	shl    $0x2,%rax
    4879:	48 01 d0             	add    %rdx,%rax
    487c:	48 ba f1 f0 f0 f0 f0 	movabs $0xf0f0f0f0f0f0f0f1,%rdx
    4883:	f0 f0 f0 
    4886:	48 f7 e2             	mul    %rdx
    4889:	48 89 d0             	mov    %rdx,%rax
    488c:	48 c1 e8 04          	shr    $0x4,%rax
    4890:	48 c1 e0 02          	shl    $0x2,%rax
    4894:	48 89 05 00 00 00 00 	mov    %rax,0x0(%rip)        # 489b <main+0xaa1>
    489b:	48 8b 05 00 00 00 00 	mov    0x0(%rip),%rax        # 48a2 <main+0xaa8>
    48a2:	8b 00                	mov    (%rax),%eax
    48a4:	89 c7                	mov    %eax,%edi
    48a6:	e8 00 00 00 00       	call   48ab <main+0xab1>
    48ab:	48 8d 05 00 00 00 00 	lea    0x0(%rip),%rax        # 48b2 <main+0xab8>
    48b2:	48 89 c6             	mov    %rax,%rsi
    48b5:	48 8d 05 00 00 00 00 	lea    0x0(%rip),%rax        # 48bc <main+0xac2>
    48bc:	48 89 c7             	mov    %rax,%rdi
    48bf:	e8 00 00 00 00       	call   48c4 <main+0xaca>
    48c4:	48 89 85 70 ef ff ff 	mov    %rax,-0x1090(%rbp)
    48cb:	48 83 bd 70 ef ff ff 	cmpq   $0x0,-0x1090(%rbp)
    48d2:	00 
    48d3:	75 0a                	jne    48df <main+0xae5>
    48d5:	b8 01 00 00 00       	mov    $0x1,%eax
    48da:	e9 5f 01 00 00       	jmp    4a3e <main+0xc44>
    48df:	48 8b 3d 00 00 00 00 	mov    0x0(%rip),%rdi        # 48e6 <main+0xaec>
    48e6:	48 8b 35 00 00 00 00 	mov    0x0(%rip),%rsi        # 48ed <main+0xaf3>
    48ed:	48 8b 0d 00 00 00 00 	mov    0x0(%rip),%rcx        # 48f4 <main+0xafa>
    48f4:	48 8b 15 00 00 00 00 	mov    0x0(%rip),%rdx        # 48fb <main+0xb01>
    48fb:	48 8b 85 70 ef ff ff 	mov    -0x1090(%rbp),%rax
    4902:	49 89 f9             	mov    %rdi,%r9
    4905:	49 89 f0             	mov    %rsi,%r8
    4908:	48 8d 35 00 00 00 00 	lea    0x0(%rip),%rsi        # 490f <main+0xb15>
    490f:	48 89 c7             	mov    %rax,%rdi
    4912:	b8 00 00 00 00       	mov    $0x0,%eax
    4917:	e8 00 00 00 00       	call   491c <main+0xb22>
    491c:	48 8b 85 70 ef ff ff 	mov    -0x1090(%rbp),%rax
    4923:	48 89 c7             	mov    %rax,%rdi
    4926:	e8 00 00 00 00       	call   492b <main+0xb31>
    492b:	48 8b 35 00 00 00 00 	mov    0x0(%rip),%rsi        # 4932 <main+0xb38>
    4932:	48 8b 0d 00 00 00 00 	mov    0x0(%rip),%rcx        # 4939 <main+0xb3f>
    4939:	48 8b 15 00 00 00 00 	mov    0x0(%rip),%rdx        # 4940 <main+0xb46>
    4940:	48 8b 05 00 00 00 00 	mov    0x0(%rip),%rax        # 4947 <main+0xb4d>
    4947:	49 89 f0             	mov    %rsi,%r8
    494a:	48 89 c6             	mov    %rax,%rsi
    494d:	48 8d 05 00 00 00 00 	lea    0x0(%rip),%rax        # 4954 <main+0xb5a>
    4954:	48 89 c7             	mov    %rax,%rdi
    4957:	b8 00 00 00 00       	mov    $0x0,%eax
    495c:	e8 00 00 00 00       	call   4961 <main+0xb67>
    4961:	c7 85 0c f0 ff ff 00 	movl   $0x0,-0xff4(%rbp)
    4968:	00 00 00 
    496b:	eb 36                	jmp    49a3 <main+0xba9>
    496d:	8b 85 0c f0 ff ff    	mov    -0xff4(%rbp),%eax
    4973:	48 63 d0             	movslq %eax,%rdx
    4976:	48 8b 85 d8 ef ff ff 	mov    -0x1028(%rbp),%rax
    497d:	48 01 d0             	add    %rdx,%rax
    4980:	0f b6 00             	movzbl (%rax),%eax
    4983:	0f b6 c0             	movzbl %al,%eax
    4986:	89 c6                	mov    %eax,%esi
    4988:	48 8d 05 00 00 00 00 	lea    0x0(%rip),%rax        # 498f <main+0xb95>
    498f:	48 89 c7             	mov    %rax,%rdi
    4992:	b8 00 00 00 00       	mov    $0x0,%eax
    4997:	e8 00 00 00 00       	call   499c <main+0xba2>
    499c:	83 85 0c f0 ff ff 01 	addl   $0x1,-0xff4(%rbp)
    49a3:	83 bd 0c f0 ff ff 28 	cmpl   $0x28,-0xff4(%rbp)
    49aa:	7e c1                	jle    496d <main+0xb73>
    49ac:	48 8d 05 00 00 00 00 	lea    0x0(%rip),%rax        # 49b3 <main+0xbb9>
    49b3:	48 89 c7             	mov    %rax,%rdi
    49b6:	b8 00 00 00 00       	mov    $0x0,%eax
    49bb:	e8 00 00 00 00       	call   49c0 <main+0xbc6>
    49c0:	e8 00 00 00 00       	call   49c5 <main+0xbcb>
    49c5:	48 89 c2             	mov    %rax,%rdx
    49c8:	48 8b 05 00 00 00 00 	mov    0x0(%rip),%rax        # 49cf <main+0xbd5>
    49cf:	48 89 10             	mov    %rdx,(%rax)
    49d2:	b8 00 00 00 00       	mov    $0x0,%eax
    49d7:	e8 00 00 00 00       	call   49dc <main+0xbe2>
    49dc:	48 8b 05 00 00 00 00 	mov    0x0(%rip),%rax        # 49e3 <main+0xbe9>
    49e3:	48 8b 00             	mov    (%rax),%rax
    49e6:	48 89 c7             	mov    %rax,%rdi
    49e9:	e8 00 00 00 00       	call   49ee <main+0xbf4>
    49ee:	89 c2                	mov    %eax,%edx
    49f0:	48 8b 05 00 00 00 00 	mov    0x0(%rip),%rax        # 49f7 <main+0xbfd>
    49f7:	89 10                	mov    %edx,(%rax)
    49f9:	48 8b 05 00 00 00 00 	mov    0x0(%rip),%rax        # 4a00 <main+0xc06>
    4a00:	8b 00                	mov    (%rax),%eax
    4a02:	85 c0                	test   %eax,%eax
    4a04:	74 33                	je     4a39 <main+0xc3f>
    4a06:	48 8b 05 00 00 00 00 	mov    0x0(%rip),%rax        # 4a0d <main+0xc13>
    4a0d:	8b 00                	mov    (%rax),%eax
    4a0f:	89 c1                	mov    %eax,%ecx
    4a11:	ba 63 05 00 00       	mov    $0x563,%edx
    4a16:	48 8d 05 00 00 00 00 	lea    0x0(%rip),%rax        # 4a1d <main+0xc23>
    4a1d:	48 89 c6             	mov    %rax,%rsi
    4a20:	48 8d 05 00 00 00 00 	lea    0x0(%rip),%rax        # 4a27 <main+0xc2d>
    4a27:	48 89 c7             	mov    %rax,%rdi
    4a2a:	b8 00 00 00 00       	mov    $0x0,%eax
    4a2f:	e8 00 00 00 00       	call   4a34 <main+0xc3a>
    4a34:	e8 00 00 00 00       	call   4a39 <main+0xc3f>
    4a39:	b8 00 00 00 00       	mov    $0x0,%eax
    4a3e:	4c 8b 55 f8          	mov    -0x8(%rbp),%r10
    4a42:	c9                   	leave  
    4a43:	49 8d 62 f8          	lea    -0x8(%r10),%rsp
    4a47:	c3                   	ret    
